(dp0
S'is'
p1
I73
sS'into'
p2
I72
sS'am'
p3
I65
sS'an'
p4
I66
sS'onto'
p5
I75
sS'are'
p6
I67
sS'in'
p7
I71
sS'where'
p8
I82
sS'she'
p9
I76
sS'!'
p10
I29
sS' '
p11
I1
sS'#'
p12
I63
sS'%'
p13
I62
sS'$'
p14
I60
sS"'"
p15
I26
sS'&'
p16
I56
sS')'
p17
I33
sS'('
p18
I34
sS'+'
p19
I64
sS'*'
p20
I53
sS'-'
p21
I30
sS','
p22
I25
sS'/'
p23
I44
sS'.'
p24
I19
sS'1'
p25
I38
sS'0'
p26
I35
sS'3'
p27
I41
sS'2'
p28
I39
sS'5'
p29
I45
sS'4'
p30
I48
sS'7'
p31
I52
sS'6'
p32
I51
sS'9'
p33
I49
sS'8'
p34
I43
sS';'
p35
I50
sS':'
p36
I37
sS'='
p37
I59
sS'<'
p38
I57
sS'?'
p39
I32
sS'>'
p40
I58
sS'@'
p41
I61
sS'who'
p42
I83
sS'to'
p43
I78
sS'on'
p44
I74
sS'were'
p45
I80
sS'what'
p46
I81
sS'how'
p47
I70
sS'he'
p48
I69
sS'was'
p49
I79
sS'['
p50
I55
sS']'
p51
I54
sS'why'
p52
I84
sS'_'
p53
I47
sS'^'
p54
I42
sS'a'
p55
I4
sS'`'
p56
I27
sS'c'
p57
I16
sS'b'
p58
I22
sS'e'
p59
I2
sS'd'
p60
I12
sS'g'
p61
I18
sS'f'
p62
I20
sS'i'
p63
I5
sS'h'
p64
I10
sS'k'
p65
I23
sS'j'
p66
I28
sS'm'
p67
I13
sS'l'
p68
I11
sS'o'
p69
I6
sS'n'
p70
I7
sS'q'
p71
I40
sS'p'
p72
I21
sS's'
p73
I8
sS'r'
p74
I9
sS'u'
p75
I15
sS't'
p76
I3
sS'w'
p77
I17
sS'v'
p78
I24
sS'y'
p79
I14
sS'x'
p80
I31
sS'the'
p81
I77
sS'z'
p82
I36
sS'at'
p83
I68
sS'~'
p84
I46
s.