(dp0
S'!'
p1
I29
sS' '
p2
I1
sS'#'
p3
I63
sS'%'
p4
I62
sS'$'
p5
I60
sS"'"
p6
I26
sS'&'
p7
I56
sS')'
p8
I33
sS'('
p9
I34
sS'+'
p10
I64
sS'*'
p11
I53
sS'-'
p12
I30
sS','
p13
I25
sS'/'
p14
I44
sS'.'
p15
I19
sS'1'
p16
I38
sS'0'
p17
I35
sS'3'
p18
I41
sS'2'
p19
I39
sS'5'
p20
I45
sS'4'
p21
I48
sS'7'
p22
I52
sS'6'
p23
I51
sS'9'
p24
I49
sS'8'
p25
I43
sS';'
p26
I50
sS':'
p27
I37
sS'='
p28
I59
sS'<'
p29
I57
sS'?'
p30
I32
sS'>'
p31
I58
sS'@'
p32
I61
sS'['
p33
I55
sS']'
p34
I54
sS'_'
p35
I47
sS'^'
p36
I42
sS'a'
p37
I4
sS'`'
p38
I27
sS'c'
p39
I16
sS'b'
p40
I22
sS'e'
p41
I2
sS'd'
p42
I12
sS'g'
p43
I18
sS'f'
p44
I20
sS'i'
p45
I5
sS'h'
p46
I10
sS'k'
p47
I23
sS'j'
p48
I28
sS'm'
p49
I13
sS'l'
p50
I11
sS'o'
p51
I6
sS'n'
p52
I7
sS'q'
p53
I40
sS'p'
p54
I21
sS's'
p55
I8
sS'r'
p56
I9
sS'u'
p57
I15
sS't'
p58
I3
sS'w'
p59
I17
sS'v'
p60
I24
sS'y'
p61
I14
sS'x'
p62
I31
sS'z'
p63
I36
sS'~'
p64
I46
s.