(dp0
S'raining'
p1
I724
sS'limited'
p2
I2118
sS'personally'
p3
I2609
sS'yellow'
p4
I2209
sS'four'
p5
I627
sS'nursery'
p6
I2135
sS'sleep'
p7
I317
sS'asian'
p8
I1859
sS'consists'
p9
I2256
sS'hate'
p10
I740
sS'consider'
p11
I1631
sS'relationships'
p12
I1231
sS'whose'
p13
I1189
sS'electricity'
p14
I1108
sS'tweet'
p15
I2416
sS'presents'
p16
I2363
sS'bike'
p17
I2034
sS'under'
p18
I936
sS'teaching'
p19
I753
sS'sorry'
p20
I539
sS'worth'
p21
I1604
sS'@'
p22
I1511
sS'rise'
p23
I2640
sS'every'
p24
I178
sS'jack'
p25
I2564
sS'tickets'
p26
I1345
sS'believed'
p27
I2231
sS'school'
p28
I95
sS'prize'
p29
I1807
sS'skills'
p30
I422
sS'companies'
p31
I1202
sS'solution'
p32
I1418
sS'convenience'
p33
I1295
sS'red'
p34
I825
sS'clothes'
p35
I600
sS'enjoy'
p36
I326
sS'bill'
p37
I1867
sS'bicycle'
p38
I1058
sS'tired'
p39
I303
sS'phones'
p40
I2359
sS'japanese'
p41
I55
sS'second'
p42
I352
sS'street'
p43
I774
sS'n'
p44
I2592
sS'theory'
p45
I2695
sS'even'
p46
I144
sS'pace'
p47
I2601
sS'thunder'
p48
I1993
sS'+'
p49
I1049
sS'cooking'
p50
I890
sS'asia'
p51
I1512
sS'above'
p52
I911
sS'new'
p53
I86
sS'net'
p54
I1933
sS'ever'
p55
I534
sS'disney'
p56
I1745
sS'told'
p57
I286
sS'hero'
p58
I1163
sS'never'
p59
I208
sS'here'
p60
I121
sS'bangkok'
p61
I1864
sS'met'
p62
I322
sS'china'
p63
I575
sS'active'
p64
I2215
sS'path'
p65
I2605
sS'100'
p66
I938
sS'dry'
p67
I1896
sS'kids'
p68
I1076
sS'daughter'
p69
I476
sS'attending'
p70
I2444
sS'items'
p71
I1918
sS'employees'
p72
I1020
sS'changed'
p73
I503
sS'snowing'
p74
I1976
sS'jogging'
p75
I1312
sS'smoke'
p76
I1498
sS'stressed'
p77
I1341
sS'military'
p78
I1671
sS'suitable'
p79
I1984
sS'changes'
p80
I1293
sS'punishment'
p81
I2622
sS'golden'
p82
I1549
sS'fantastic'
p83
I1374
sS'explained'
p84
I2283
sS'feelings'
p85
I795
sS'brought'
p86
I1100
sS'thursday'
p87
I1424
sS'actions'
p88
I2018
sS'total'
p89
I2197
sS'landscape'
p90
I2570
sS'charge'
p91
I2045
sS'spoke'
p92
I1340
sS'would'
p93
I96
sS'hospital'
p94
I742
sS'negative'
p95
I2341
sS'music'
p96
I226
sS'therefore'
p97
I543
sS'recommend'
p98
I725
sS'survive'
p99
I2685
sS'type'
p100
I909
sS'tell'
p101
I224
sS'preparation'
p102
I2362
sS'posting'
p103
I2614
sS'relax'
p104
I905
sS'successful'
p105
I2183
sS'haha'
p106
I506
sS'yahoo'
p107
I2208
sS'hurt'
p108
I1165
sS'phone'
p109
I490
sS'warm'
p110
I709
sS'adult'
p111
I2021
sS'excellent'
p112
I1372
sS'hold'
p113
I1555
sS'must'
p114
I263
sS'me'
p115
I26
sS'join'
p116
I1168
sS'room'
p117
I323
sS'shame'
p118
I2173
sS'work'
p119
I100
sS'roof'
p120
I2642
sS'movies'
p121
I581
sS'era'
p122
I1898
sS'mr'
p123
I748
sS'my'
p124
I8
sS'example'
p125
I364
sS'saturday'
p126
I770
sS'give'
p127
I262
sS'punk'
p128
I2623
sS'india'
p129
I2109
sS'motivated'
p130
I2128
sS'foods'
p131
I697
sS'want'
p132
I66
sS'seoul'
p133
I1822
sS'keep'
p134
I259
sS'returned'
p135
I1816
sS'ceremony'
p136
I792
sS'aging'
p137
I1853
sS'end'
p138
I319
sS'turn'
p139
I621
sS'provide'
p140
I1407
sS'travel'
p141
I808
sS'sitting'
p142
I1336
sS'feature'
p143
I1542
sS'machine'
p144
I1169
sS'how'
p145
I89
sS'hot'
p146
I368
sS'answer'
p147
I434
sS'beach'
p148
I1099
sS'pizza'
p149
I1803
sS'fever'
p150
I1757
sS'beauty'
p151
I1619
sS'after'
p152
I85
sS'damaged'
p153
I2492
sS'customs'
p154
I1888
sS'dinosaurs'
p155
I2273
sS'wrong'
p156
I568
sS'president'
p157
I1577
sS'law'
p158
I1315
sS'types'
p159
I1839
sS'purchase'
p160
I2368
sS'third'
p161
I877
sS'appreciate'
p162
I885
sS'childhood'
p163
I2245
sS'maintain'
p164
I1667
sS'green'
p165
I587
sS'waitress'
p166
I2721
sS'enter'
p167
I1109
sS'fan'
p168
I1023
sS'1000'
p169
I2429
sS'order'
p170
I536
sS'wind'
p171
I972
sS'wine'
p172
I1842
sS'office'
p173
I362
sS'dreamed'
p174
I2073
sS'over'
p175
I227
sS'satisfied'
p176
I871
sS'london'
p177
I899
sS'japan'
p178
I79
sS'before'
p179
I170
sS'fit'
p180
I1902
sS'somewhere'
p181
I1042
sS'fix'
p182
I1544
sS','
p183
I3
sS'writing'
p184
I183
sS'better'
p185
I221
sS'weeks'
p186
I611
sS'easier'
p187
I1298
sS'overcome'
p188
I2350
sS'then'
p189
I130
sS'them'
p190
I81
sS'affected'
p191
I2217
sS'tourist'
p192
I2702
sS'rinfone'
p193
I2161
sS'safe'
p194
I1412
sS'break'
p195
I831
sS'band'
p196
I1357
sS'roommate'
p197
I2162
sS'effects'
p198
I1749
sS'they'
p199
I57
sS'schools'
p200
I961
sS'one'
p201
I61
sS'bank'
p202
I2228
sS'bread'
p203
I1245
sS'grammar'
p204
I798
sS'meat'
p205
I1318
sS'potatoes'
p206
I1959
sS'l'
p207
I1314
sS'reasonable'
p208
I1489
sS'each'
p209
I205
sS'went'
p210
I82
sS'side'
p211
I907
sS'mean'
p212
I467
sS'series'
p213
I771
sS'wednesday'
p214
I2727
sS'taught'
p215
I1237
sS'forgot'
p216
I894
sS'message'
p217
I1081
sS'by'
p218
I63
sS'gon'
p219
I816
sS'network'
p220
I1934
sS'driving'
p221
I1156
sS'god'
p222
I921
sS'cameras'
p223
I2239
sS'shinkansen'
p224
I2388
sS'content'
p225
I1632
sS'encourage'
p226
I2514
sS'adapt'
p227
I2433
sS'medicine'
p228
I987
sS'got'
p229
I136
sS'size'
p230
I1417
sS'foundation'
p231
I2533
sS'little'
p232
I151
sS'free'
p233
I380
sS'standard'
p234
I1499
sS'wanted'
p235
I275
sS'ate'
p236
I384
sS'created'
p237
I1451
sS'starts'
p238
I1419
sS'messages'
p239
I1482
sS'days'
p240
I117
sS'corrections'
p241
I1104
sS'arrived'
p242
I941
sS'onto'
p243
I2598
sS'already'
p244
I353
sS'features'
p245
I2288
sS'grade'
p246
I896
sS'cookies'
p247
I2057
sS'hearing'
p248
I1467
sS'wash'
p249
I1841
sS'delicious'
p250
I614
sS'force'
p251
I1762
sS'calorie'
p252
I1516
sS'basketball'
p253
I1242
sS'service'
p254
I772
sS'top'
p255
I1091
sS'girls'
p256
I698
sS'kanto'
p257
I2112
sS'needed'
p258
I1036
sS'master'
p259
I841
sS'too'
p260
I116
sS'blossoms'
p261
I976
sS'tom'
p262
I2701
sS'bitter'
p263
I2459
sS'dogs'
p264
I1645
sS'listen'
p265
I426
sS'curtains'
p266
I1887
sS'ceiling'
p267
I1520
sS'gym'
p268
I1213
sS'serve'
p269
I2652
sS'took'
p270
I233
sS'wisdom'
p271
I2728
sS'western'
p272
I1047
sS'somewhat'
p273
I2667
sS'practiced'
p274
I2361
sS'prefecture'
p275
I1403
sS'distance'
p276
I1530
sS'anxiety'
p277
I2221
sS'showed'
p278
I1584
sS'burger'
p279
I2238
sS'tree'
p280
I2198
sS'scenes'
p281
I1820
sS'tourists'
p282
I1709
sS'shower'
p283
I1272
sS'matter'
p284
I643
sS'classes'
p285
I641
sS'silly'
p286
I1585
sS'speaking'
p287
I363
sS'historical'
p288
I1381
sS'k'
p289
I1385
sS'feeling'
p290
I578
sS'donkey'
p291
I2275
sS'fashion'
p292
I919
sS'ran'
p293
I1132
sS'boston'
p294
I1622
sS'modern'
p295
I1566
sS'mind'
p296
I408
sS'mine'
p297
I1171
sS'spent'
p298
I846
sS'talking'
p299
I470
sS'seen'
p300
I468
sS'seem'
p301
I962
sS'tells'
p302
I1705
sS'seminar'
p303
I1973
sS'relatively'
p304
I2156
sS'strength'
p305
I2675
sS'convenient'
p306
I2259
sS'responsible'
p307
I2638
sS'-'
p308
I18
sS'snow'
p309
I512
sS'toeic'
p310
I620
sS'recommended'
p311
I1409
sS'subjects'
p312
I1422
sS'laughed'
p313
I2114
sS'blue'
p314
I1010
sS'nobody'
p315
I1082
sS'though'
p316
I195
sS'regular'
p317
I1491
sS'germany'
p318
I1309
sS'letter'
p319
I951
sS'organization'
p320
I1940
sS'laughing'
p321
I2324
sS'zealand'
p322
I2734
sS'singer'
p323
I1586
sS'don'
p324
I2070
sS'medical'
p325
I1392
sS'camp'
p326
I1874
sS'm'
p327
I479
sS'dog'
p328
I576
sS'yours'
p329
I2732
sS'psychology'
p330
I2621
sS'points'
p331
I636
sS'aunt'
p332
I1861
sS'deeply'
p333
I1640
sS'came'
p334
I222
sS'saying'
p335
I704
sS'selected'
p336
I2387
sS'lyrics'
p337
I1781
sS'converse'
p338
I2486
sS'random'
p339
I2370
sS'radio'
p340
I1269
sS'tohoku'
p341
I2700
sS'participate'
p342
I1944
sS'earth'
p343
I2279
sS'enjoyed'
p344
I406
sS'lessons'
p345
I1220
sS'busy'
p346
I305
sS'proposed'
p347
I2367
sS'spite'
p348
I2670
sS'situations'
p349
I1337
sS'explain'
p350
I836
sS'yen'
p351
I910
sS'sugar'
p352
I2403
sS'bush'
p353
I1870
sS'touched'
p354
I1995
sS'rich'
p355
I1494
sS'rice'
p356
I691
sS'personality'
p357
I1679
sS'wearing'
p358
I1188
sS'do'
p359
I29
sS'wide'
p360
I2425
sS'stop'
p361
I528
sS'coast'
p362
I1444
sS'pocket'
p363
I1804
sS'h'
p364
I2305
sS'watermelon'
p365
I2424
sS'wedding'
p366
I1145
sS'report'
p367
I1687
sS'happiest'
p368
I2549
sS'tips'
p369
I2699
sS'14'
p370
I1717
sS'hall'
p371
I2306
sS'earn'
p372
I2074
sS'bar'
p373
I1290
sS'countries'
p374
I377
sS'textbooks'
p375
I2694
sS'fields'
p376
I2525
sS'translating'
p377
I2413
sS'method'
p378
I1788
sS'twice'
p379
I1143
sS'bad'
p380
I212
sS'grilled'
p381
I2302
sS'ears'
p382
I2075
sS'disaster'
p383
I1366
sS'generally'
p384
I2539
sS'depends'
p385
I2269
sS'decided'
p386
I299
sS'result'
p387
I786
sS'fail'
p388
I2284
sS'noodles'
p389
I2133
sS'best'
p390
I214
sS'subject'
p391
I1182
sS'00'
p392
I661
sS'said'
p393
I145
sS'lots'
p394
I606
sS'away'
p395
I571
sS'wikipedia'
p396
I2206
sS'grandmother'
p397
I2300
sS'score'
p398
I826
sS'olympics'
p399
I2349
sS'warabi'
p400
I2725
sS'hopefully'
p401
I1772
sS'mum'
p402
I1484
sS'lazy'
p403
I1118
sS'men'
p404
I901
sS'omg'
p405
I1798
sS'nature'
p406
I867
sS'wo'
p407
I648
sS'weak'
p408
I1144
sS'however'
p409
I177
sS'boss'
p410
I685
sS'wear'
p411
I693
sS'extent'
p412
I2521
sS'news'
p413
I400
sS'improve'
p414
I239
sS'pity'
p415
I1952
sS'received'
p416
I959
sS'protect'
p417
I1964
sS'accident'
p418
I1240
sS'reported'
p419
I2378
sS'country'
p420
I289
sS'ill'
p421
I1914
sS'against'
p422
I683
sS'players'
p423
I1400
sS'games'
p424
I667
sS'planned'
p425
I1954
sS'faces'
p426
I1648
sS'studio'
p427
I1421
sS'com'
p428
I1523
sS'asked'
p429
I300
sS'tough'
p430
I1597
sS'appeared'
p431
I2026
sS'had'
p432
I65
sS'2nd'
p433
I1718
sS'comprehension'
p434
I2478
sS'trust'
p435
I1998
sS'hitler'
p436
I2553
sS'speak'
p437
I202
sS'bathroom'
p438
I1513
sS'asks'
p439
I2226
sS'source'
p440
I2395
sS'three'
p441
I270
sS'been'
p442
I92
sS'.'
p443
I1
sS'confident'
p444
I2254
sS'beer'
p445
I830
sS'much'
p446
I115
sS'interest'
p447
I1263
sS'basic'
p448
I1865
sS'expected'
p449
I1539
sS'entered'
p450
I1537
sS'lovely'
p451
I1079
sS'correction'
p452
I2487
sS'website'
p453
I437
sS'life'
p454
I157
sS'families'
p455
I1373
sS'sunshine'
p456
I1985
sS'worker'
p457
I2009
sS'child'
p458
I486
sS'catch'
p459
I1059
sS'worked'
p460
I551
sS'regretted'
p461
I2631
sS'applied'
p462
I2027
sS'has'
p463
I80
sS'tastes'
p464
I1835
sS'air'
p465
I523
sS'aim'
p466
I1854
sS'near'
p467
I473
sS'suppose'
p468
I1702
sS'teachers'
p469
I775
sS'voice'
p470
I728
sS'study'
p471
I112
sS'mistake'
p472
I1222
sS'seven'
p473
I1271
sS'economics'
p474
I2510
sS'olympic'
p475
I2138
sS'played'
p476
I537
sS'fill'
p477
I2526
sS'is'
p478
I10
sS'sushi'
p479
I1703
sS'it'
p480
I11
sS'player'
p481
I958
sS'im'
p482
I1470
sS'uncle'
p483
I2710
sS'in'
p484
I9
sS'ginza'
p485
I2541
sS'conditioner'
p486
I1884
sS'if'
p487
I56
sS'grown'
p488
I2546
sS'hong'
p489
I1771
sS'things'
p490
I152
sS'make'
p491
I110
sS'polaroid'
p492
I2147
sS'amount'
p493
I1097
sS'beside'
p494
I1514
sS'complex'
p495
I1294
sS'dvds'
p496
I1370
sS'success'
p497
I1699
sS'several'
p498
I549
sS'european'
p499
I1753
sS'meets'
p500
I1925
sS'pick'
p501
I1575
sS'hang'
p502
I2308
sS'rain'
p503
I629
sS'hand'
p504
I556
sS'documents'
p505
I2069
sS'characters'
p506
I1060
sS'supper'
p507
I2186
sS'opportunity'
p508
I1126
sS'thoughts'
p509
I1090
sS'kid'
p510
I1666
sS'kept'
p511
I1117
sS'programs'
p512
I1578
sS'suffering'
p513
I1701
sS'academic'
p514
I1846
sS'contact'
p515
I673
sS'greatest'
p516
I2544
sS'mother'
p517
I301
sS'the'
p518
I4
sS'tasted'
p519
I2188
sS'musical'
p520
I1929
sS'left'
p521
I454
sS'opinions'
p522
I2599
sS'just'
p523
I90
sS'sentence'
p524
I548
sS'photo'
p525
I1228
sS'laptop'
p526
I1476
sS'sleepy'
p527
I660
sS'aside'
p528
I1723
sS'thanks'
p529
I308
sS'human'
p530
I837
sS'yes'
p531
I622
sS'yet'
p532
I429
sS'previous'
p533
I1487
sS'kanagawa'
p534
I2317
sS'cherry'
p535
I832
sS'thick'
p536
I2190
sS'character'
p537
I889
sS'board'
p538
I1515
sS'easy'
p539
I394
sS'save'
p540
I872
sS'hat'
p541
I2098
sS'gave'
p542
I535
sS'bands'
p543
I2030
sS'possible'
p544
I491
sS'cultural'
p545
I2264
sS'background'
p546
I2447
sS'unique'
p547
I1599
sS'dreams'
p548
I1106
sS'apart'
p549
I2223
sS'gift'
p550
I1906
sS'unnecessary'
p551
I2201
sS'specific'
p552
I2397
sS'steps'
p553
I1979
sS'night'
p554
I194
sS'hung'
p555
I2106
sS'towards'
p556
I1503
sS'guests'
p557
I2547
sS'right'
p558
I254
sS'old'
p559
I182
sS'deal'
p560
I1017
sS'people'
p561
I59
sS'somehow'
p562
I1588
sS'elderly'
p563
I1752
sS'50'
p564
I2212
sS'born'
p565
I791
sS'clubs'
p566
I2051
sS'escape'
p567
I2079
sS'dear'
p568
I1065
sS'for'
p569
I16
sS'bottom'
p570
I2460
sS'opposite'
p571
I2600
sS'comments'
p572
I813
sS'everything'
p573
I445
sS'asking'
p574
I1617
sS'christmas'
p575
I430
sS'meanings'
p576
I2585
sS'fish'
p577
I1071
sS'plz'
p578
I2613
sS'translated'
p579
I1598
sS'graduated'
p580
I1115
sS'post'
p581
I722
sS'super'
p582
I1185
sS'dollars'
p583
I2274
sS'months'
p584
I388
sS'o'
p585
I930
sS'dinner'
p586
I398
sS'plus'
p587
I2146
sS'afternoon'
p588
I731
sS'cherish'
p589
I2470
sS'efforts'
p590
I2511
sS'curry'
p591
I1453
sS'automatically'
p592
I2445
sS'match'
p593
I954
sS'lied'
p594
I2577
sS'material'
p595
I2331
sS'bath'
p596
I758
sS'down'
p597
I292
sS'magazines'
p598
I1317
sS'soy'
p599
I1977
sS'particularly'
p600
I2604
sS'wan'
p601
I484
sS'mcdonald'
p602
I2584
sS'support'
p603
I1088
sS'tennis'
p604
I849
sS'why'
p605
I137
sS'stuck'
p606
I2182
sS'quiet'
p607
I1579
sS'way'
p608
I135
sS'call'
p609
I482
sS'was'
p610
I14
sS'war'
p611
I1092
sS'happy'
p612
I154
sS'head'
p613
I984
sS'form'
p614
I1072
sS'offer'
p615
I1223
sS'becoming'
p616
I1243
sS'fireworks'
p617
I893
sS'yakata'
p618
I2731
sS'mysterious'
p619
I2339
sS'heat'
p620
I863
sS'hear'
p621
I617
sS'dead'
p622
I1889
sS'true'
p623
I610
sS'inside'
p624
I1217
sS'attached'
p625
I2442
sS'maximum'
p626
I2583
sS'until'
p627
I365
sS'proud'
p628
I1488
sS'stronger'
p629
I1697
sS'textbook'
p630
I1991
sS'drive'
p631
I1297
sS'sometime'
p632
I1339
sS'request'
p633
I2379
sS'awhile'
p634
I2446
sS'annoying'
p635
I1615
sS'check'
p636
I532
sS'physical'
p637
I1951
sS'dying'
p638
I1897
sS'floor'
p639
I1026
sS'colder'
p640
I2052
sS'na'
p641
I355
sS'when'
p642
I51
sS'reality'
p643
I1580
sS'ny'
p644
I1172
sS'nz'
p645
I1937
sS'interested'
p646
I373
sS'holding'
p647
I2554
sS'digital'
p648
I1642
sS'test'
p649
I337
sS'discount'
p650
I2068
sS'picture'
p651
I561
sS"'s"
p652
I24
sS'surprise'
p653
I1593
sS'felt'
p654
I247
sS'diet'
p655
I2272
sS'fell'
p656
I946
sS'scores'
p657
I2647
sS"'m"
p658
I34
sS'weekend'
p659
I492
sS'died'
p660
I945
sS'balloon'
p661
I2449
sS'younger'
p662
I937
sS'faster'
p663
I1211
sS'glass'
p664
I2094
sS'normally'
p665
I2344
sS'daily'
p666
I761
sS'rough'
p667
I2381
sS'vietnam'
p668
I1349
sS'classmate'
p669
I2474
sS'time'
p670
I43
sS'push'
p671
I2624
sS'serious'
p672
I998
sS'songs'
p673
I679
sS'neighbors'
p674
I2595
sS'coach'
p675
I2252
sS'dance'
p676
I794
sS'global'
p677
I1766
sS'focus'
p678
I1545
sS'/'
p679
I161
sS'grateful'
p680
I2301
sS'skin'
p681
I1695
sS'milk'
p682
I2586
sS'certainly'
p683
I1878
sS'yummy'
p684
I2733
sS'april'
p685
I811
sS'father'
p686
I407
sS'passage'
p687
I1945
sS'environment'
p688
I1209
sS'0'
p689
I1354
sS'finally'
p690
I424
sS'suffered'
p691
I1700
sS'circumstances'
p692
I1880
sS'doremon'
p693
I2072
sS'division'
p694
I1531
sS'advantage'
p695
I1851
sS'choice'
p696
I1200
sS'entries'
p697
I1111
sS'cook'
p698
I862
sS'word'
p699
I567
sS'trouble'
p700
I828
sS'minute'
p701
I2126
sS'cool'
p702
I625
sS'impressive'
p703
I2556
sS'level'
p704
I605
sS'did'
p705
I97
sS'die'
p706
I1457
sS'philippines'
p707
I2610
sS'rights'
p708
I2639
sS'brother'
p709
I663
sS'cloudy'
p710
I2050
sS'leave'
p711
I508
sS'p'
p712
I659
sS'team'
p713
I460
sS'guy'
p714
I579
sS'prevent'
p715
I1962
sS'pork'
p716
I1327
sS'talked'
p717
I453
sS'says'
p718
I705
sS'regret'
p719
I1490
sS'sigh'
p720
I2660
sS'literature'
p721
I1922
sS'sign'
p722
I2661
sS'cost'
p723
I891
sS'patient'
p724
I1322
sS'fear'
p725
I2287
sS'drinks'
p726
I1367
sS'mt'
p727
I1928
sS'debate'
p728
I2062
sS'current'
p729
I1203
sS'goes'
p730
I895
sS'international'
p731
I925
sS'falling'
p732
I2083
sS'filled'
p733
I2527
sS'supporting'
p734
I2683
sS'digitalization'
p735
I2501
sS'heavily'
p736
I2551
sS'french'
p737
I797
sS'okinawa'
p738
I1320
sS'water'
p739
I410
sS'baseball'
p740
I886
sS'groups'
p741
I1654
sS'kilometers'
p742
I1919
sS'alone'
p743
I779
sS'['
p744
I570
sS'teaches'
p745
I2691
sS'teacher'
p746
I210
sS'change'
p747
I376
sS'wait'
p748
I564
sS'box'
p749
I2035
sS'boy'
p750
I713
sS'buch'
p751
I2237
sS'thirty'
p752
I2191
sS'canadian'
p753
I1517
sS'healthy'
p754
I1656
sS'studied'
p755
I521
sS'exams'
p756
I814
sS'bon'
p757
I2235
sS'usually'
p758
I324
sS'weird'
p759
I2006
sS'studies'
p760
I1342
sS'taipei'
p761
I2406
sS'love'
p762
I167
sS'extra'
p763
I1305
sS'prefer'
p764
I1130
sS'losing'
p765
I2580
sS'1st'
p766
I1428
sS'calligraphy'
p767
I2039
sS'crisis'
p768
I2491
sS'market'
p769
I1121
sS'everybody'
p770
I652
sS'voices'
p771
I2717
sS'working'
p772
I265
sS'sake'
p773
I1413
sS'positive'
p774
I1328
sS'angry'
p775
I810
sS'visit'
p776
I433
sS'tears'
p777
I1043
sS'france'
p778
I1307
sS'msn'
p779
I1673
sS'live'
p780
I191
sS'iphone'
p781
I1116
sS'wondering'
p782
I884
sS'memory'
p783
I1480
sS'films'
p784
I1375
sS'australian'
p785
I1862
sS'today'
p786
I50
sS'loving'
p787
I1923
sS'introducing'
p788
I2562
sS'``'
p789
I17
sS'club'
p790
I475
sS'phillies'
p791
I2358
sS'chocolate'
p792
I1013
sS'downtown'
p793
I2505
sS'everywhere'
p794
I1538
sS'far'
p795
I450
sS'cases'
p796
I1875
sS'effort'
p797
I1019
sS'fly'
p798
I2291
sS'states'
p799
I1420
sS'tokyo'
p800
I274
sS'car'
p801
I358
sS'originally'
p802
I2139
sS'flu'
p803
I1904
sS'soul'
p804
I1827
sS'cat'
p805
I598
sS'soup'
p806
I2394
sS'can'
p807
I45
sS'9th'
p808
I2214
sS'following'
p809
I1028
sS'making'
p810
I413
sS'arrive'
p811
I1857
sS'hiroshima'
p812
I1657
sS'heart'
p813
I589
sS'crazy'
p814
I737
sS'citizens'
p815
I2247
sS'figure'
p816
I1758
sS'december'
p817
I1639
sS'awesome'
p818
I1435
sS'confused'
p819
I1154
sS'topic'
p820
I935
sS'heard'
p821
I320
sS'stroke'
p822
I1983
sS'dropped'
p823
I2508
sS'allowed'
p824
I1612
sS'genpets'
p825
I2540
sS'clothing'
p826
I2049
sS'winter'
p827
I612
sS'fortunately'
p828
I796
sS'watching'
p829
I366
sS'magazine'
p830
I1565
sS'1'
p831
I234
sS'till'
p832
I1187
sS'sunday'
p833
I584
sS'fourth'
p834
I2294
sS'speaks'
p835
I2669
sS'economy'
p836
I917
sS'staying'
p837
I1181
sS'designer'
p838
I2497
sS'huge'
p839
I1382
sS'may'
p840
I229
sS'birthday'
p841
I418
sS'sns'
p842
I1826
sS'date'
p843
I1016
sS'such'
p844
I192
sS'guys'
p845
I588
sS'grow'
p846
I1259
sS'man'
p847
I283
sS'classroom'
p848
I1881
sS'stress'
p849
I1001
sS'surfing'
p850
I1987
sS'natural'
p851
I582
sS'remember'
p852
I501
sS'succeeded'
p853
I2679
sS'whenever'
p854
I879
sS'maybe'
p855
I293
sS'so'
p856
I22
sS'increase'
p857
I1558
sS'manga'
p858
I1266
sS'talk'
p859
I217
sS'cute'
p860
I585
sS'shoes'
p861
I1414
sS'east'
p862
I2076
sS'indeed'
p863
I2108
sS'differences'
p864
I1743
sS'mainly'
p865
I1782
sS'years'
p866
I140
sS'professors'
p867
I2152
sS'course'
p868
I310
sS'nbsp'
p869
I1674
sS'cold'
p870
I240
sS'still'
p871
I172
sS'birds'
p872
I2233
sS'group'
p873
I602
sS'thank'
p874
I193
sS'interesting'
p875
I272
sS'comic'
p876
I2054
sS'troubles'
p877
I2414
sS'amazing'
p878
I1192
sS'window'
p879
I1283
sS'policy'
p880
I1956
sS'mail'
p881
I656
sS'main'
p882
I745
sS'texas'
p883
I2409
sS'happened'
p884
I446
sS'non'
p885
I1675
sS'lonely'
p886
I1478
sS'3'
p887
I216
sS'conversations'
p888
I1450
sS'introduce'
p889
I591
sS'lunch'
p890
I441
sS'half'
p891
I507
sS'not'
p892
I37
sS'now'
p893
I72
sS'twilight'
p894
I2709
sS'killed'
p895
I1218
sS'nor'
p896
I1936
sS'term'
p897
I1089
sS'name'
p898
I230
sS'january'
p899
I950
sS'drop'
p900
I2507
sS'rock'
p901
I1690
sS'concerts'
p902
I2480
sS'turtle'
p903
I2708
sS'square'
p904
I1830
sS'yeah'
p905
I973
sS'ex'
p906
I1257
sS'year'
p907
I105
sS'girl'
p908
I412
sS'morning'
p909
I201
sS'tried'
p910
I383
sS'canada'
p911
I856
sS'living'
p912
I440
sS'opened'
p913
I1321
sS'space'
p914
I1236
sS'profit'
p915
I2619
sS'furthermore'
p916
I2089
sS'miyazaki'
p917
I989
sS'factory'
p918
I2082
sS'looking'
p919
I277
sS'attracted'
p920
I1860
sS'seriously'
p921
I1040
sS'internet'
p922
I478
sS'correct'
p923
I219
sS'shows'
p924
I1273
sS'attended'
p925
I1054
sS'octopus'
p926
I1938
sS'state'
p927
I1500
sS'cars'
p928
I2242
sS'million'
p929
I2336
sS'quite'
p930
I609
sS'besides'
p931
I1009
sS'grandma'
p932
I2543
sS'poems'
p933
I1683
sS'card'
p934
I977
sS'care'
p935
I419
sS'advance'
p936
I1430
sS'training'
p937
I971
sS'language'
p938
I213
sS'calories'
p939
I2466
sS'modest'
p940
I1927
sS'british'
p941
I1195
sS'honest'
p942
I1262
sS'thing'
p943
I279
sS'place'
p944
I251
sS'skiing'
p945
I1825
sS'star'
p946
I2671
sS'think'
p947
I64
sS'waited'
p948
I2004
sS'first'
p949
I75
sS'cheese'
p950
I2047
sS'flying'
p951
I2292
sS'spoken'
p952
I1978
sS'waves'
p953
I2205
sS'potter'
p954
I2149
sS'xd'
p955
I1004
sS'yourself'
p956
I1284
sS'americans'
p957
I1719
sS'long'
p958
I127
sS'directly'
p959
I1643
sS'spanish'
p960
I1138
sS'carry'
p961
I1626
sS'impossible'
p962
I1557
sS'sounds'
p963
I707
sS'drove'
p964
I1107
sS'open'
p965
I802
sS'tomorrow'
p966
I218
sS'engineer'
p967
I1301
sS'city'
p968
I340
sS'given'
p969
I1029
sS'checked'
p970
I1199
sS'silent'
p971
I2175
sS'caught'
p972
I1102
sS'slept'
p973
I845
sS'anyone'
p974
I712
sS'2'
p975
I198
sS'draft'
p976
I2276
sS'siberia'
p977
I2659
sS'typing'
p978
I2418
sS'white'
p979
I880
sS'participated'
p980
I2355
sS'friend'
p981
I119
sS'gives'
p982
I1310
sS'shizuoka'
p983
I2389
sS'eyes'
p984
I664
sS'that'
p985
I15
sS'season'
p986
I442
sS'released'
p987
I2634
sS'thai'
p988
I1045
sS'flowers'
p989
I1760
sS'than'
p990
I132
sS'boyfriend'
p991
I695
sS'11'
p992
I1050
sS'10'
p993
I391
sS'13'
p994
I2430
sS'12'
p995
I1095
sS'15'
p996
I1006
sS'unfortunately'
p997
I756
sS'17'
p998
I2012
sS'16'
p999
I1510
sS'depressed'
p1000
I1528
sS'18'
p1001
I1843
sS'future'
p1002
I338
sS'were'
p1003
I94
sS'cards'
p1004
I2042
sS'college'
p1005
I385
sS'russia'
p1006
I2164
sS'and'
p1007
I7
sS'illness'
p1008
I2107
sS'san'
p1009
I2165
sS'topics'
p1010
I1708
sS'turned'
p1011
I1282
sS'sad'
p1012
I381
sS'say'
p1013
I164
sS'rent'
p1014
I1581
sS'breakfast'
p1015
I887
sS'recover'
p1016
I1968
sS'saw'
p1017
I297
sS'any'
p1018
I169
sS'marathon'
p1019
I1783
sS'sat'
p1020
I1334
sS'speakers'
p1021
I630
sS'java'
p1022
I2565
sS'foreigner'
p1023
I2293
sS'ideas'
p1024
I1166
sS'shocked'
p1025
I1178
sS'note'
p1026
I1569
sS'animation'
p1027
I732
sS'take'
p1028
I142
sS'online'
p1029
I801
sS'performance'
p1030
I1947
sS'encouraged'
p1031
I2515
sS'registered'
p1032
I1814
sS'surf'
p1033
I1986
sS'begin'
p1034
I1056
sS'sure'
p1035
I360
sS'pain'
p1036
I769
sS'normal'
p1037
I929
sS'track'
p1038
I2703
sS'price'
p1039
I750
sS'knew'
p1040
I744
sS'paid'
p1041
I1226
sS'falls'
p1042
I1756
sS'occurred'
p1043
I2348
sS'america'
p1044
I613
sS']'
p1045
I545
sS'forever'
p1046
I1376
sS'harlem'
p1047
I2550
sS'especially'
p1048
I350
sS'surprising'
p1049
I1988
sS'considered'
p1050
I2255
sS'egg'
p1051
I1750
sS'average'
p1052
I1725
sS'later'
p1053
I517
sS'hungry'
p1054
I1164
sS'sunset'
p1055
I2681
sS'professional'
p1056
I1406
sS'senior'
p1057
I1693
sS'salt'
p1058
I2644
sS'shop'
p1059
I550
sS'walking'
p1060
I1003
sS'show'
p1061
I428
sS'german'
p1062
I1159
sS'cheap'
p1063
I1439
sS'discovered'
p1064
I1644
sS'bright'
p1065
I1733
sS'corner'
p1066
I1634
sS'ground'
p1067
I1911
sS'slow'
p1068
I1497
sS'title'
p1069
I754
sS'behind'
p1070
I1194
sS'only'
p1071
I120
sS'going'
p1072
I108
sS'black'
p1073
I812
sS'correctly'
p1074
I2260
sS'get'
p1075
I101
sS'assistant'
p1076
I1618
sS'refreshed'
p1077
I2629
sS'truly'
p1078
I2706
sS'nearly'
p1079
I1793
sS'osechi'
p1080
I2140
sS'celebrate'
p1081
I857
sS'dramas'
p1082
I1747
sS'borrow'
p1083
I2236
sS'worried'
p1084
I639
sS'jokes'
p1085
I2111
sS'stupid'
p1086
I1592
sS'landlord'
p1087
I1920
sS'finishing'
p1088
I2528
sS'pants'
p1089
I2352
sS'where'
p1090
I291
sS'husband'
p1091
I604
sS'concert'
p1092
I979
sS'physically'
p1093
I2611
sS'seat'
p1094
I1971
sS'relative'
p1095
I2633
sS'asleep'
p1096
I1007
sS'surgery'
p1097
I2684
sS'sport'
p1098
I1589
sS'wonder'
p1099
I566
sS'ways'
p1100
I852
sS'jumped'
p1101
I2567
sS'review'
p1102
I1582
sS'sites'
p1103
I1694
sS'forecast'
p1104
I1763
sS'outside'
p1105
I560
sS'between'
p1106
I371
sS'mandarin'
p1107
I1924
sS'reading'
p1108
I171
sS'across'
p1109
I1848
sS'fight'
p1110
I2086
sS'notice'
p1111
I1037
sS'jobs'
p1112
I689
sS'august'
p1113
I942
sS'parent'
p1114
I2603
sS'screen'
p1115
I1692
sS'supermarket'
p1116
I2404
sS'rapidly'
p1117
I2626
sS'guitar'
p1118
I897
sS'concentrate'
p1119
I1883
sS'spare'
p1120
I1829
sS'article'
p1121
I531
sS'cities'
p1122
I2246
sS'come'
p1123
I215
sS'many'
p1124
I76
sS'region'
p1125
I960
sS'according'
p1126
I711
sS'personal'
p1127
I2608
sS's'
p1128
I386
sS'expression'
p1129
I1113
sS'comes'
p1130
I735
sS'nearby'
p1131
I2340
sS'duty'
p1132
I2278
sS'among'
p1133
I757
sS'key'
p1134
I1776
sS'cancer'
p1135
I1518
sS'color'
p1136
I1445
sS'effective'
p1137
I1460
sS'pot'
p1138
I1806
sS'period'
p1139
I869
sS'pop'
p1140
I1401
sS'satisfaction'
p1141
I1818
sS'learning'
p1142
I199
sS'cancel'
p1143
I2240
sS'moreover'
p1144
I928
sS'boat'
p1145
I1869
sS'destroyed'
p1146
I2271
sS'arts'
p1147
I1722
sS'cycling'
p1148
I1526
sS'vacation'
p1149
I447
sS'mark'
p1150
I1784
sS'workshop'
p1151
I2427
sS'peaceful'
p1152
I2144
sS'hardly'
p1153
I949
sS'wants'
p1154
I682
sS'shopping'
p1155
I510
sS'offered'
p1156
I1677
sS'tiger'
p1157
I2698
sS'photos'
p1158
I1950
sS'wake'
p1159
I1046
sS'minister'
p1160
I2588
sS'instant'
p1161
I1916
sS'careful'
p1162
I1101
sS'former'
p1163
I1377
sS'those'
p1164
I330
sS'^'
p1165
I122
sS'case'
p1166
I573
sS'myself'
p1167
I200
sS'developing'
p1168
I2499
sS'these'
p1169
I168
sS'sauce'
p1170
I2168
sS'engineering'
p1171
I2281
sS"n't"
p1172
I23
sS'newspaper'
p1173
I1568
sS'situation'
p1174
I469
sS'shops'
p1175
I1136
sS'invited'
p1176
I1559
sS'eventually'
p1177
I1647
sS'coffee'
p1178
I915
sS'sleeping'
p1179
I965
sS'middle'
p1180
I768
sS'good'
p1181
I58
sS'minds'
p1182
I2587
sS'somebody'
p1183
I1338
sS'technology'
p1184
I1044
sS'everyday'
p1185
I342
sS'worry'
p1186
I1603
sS'different'
p1187
I246
sS'develop'
p1188
I2067
sS'doctor'
p1189
I1018
sS'pay'
p1190
I749
sS'tour'
p1191
I1996
sS'same'
p1192
I231
sS'trip'
p1193
I328
sS'ya'
p1194
I1716
sS'speech'
p1195
I967
sS'lovers'
p1196
I2581
sS'coworkers'
p1197
I2263
sS'struggling'
p1198
I2678
sS'document'
p1199
I2504
sS'events'
p1200
I1302
sS'pan'
p1201
I1942
sS'kyushu'
p1202
I2569
sS'week'
p1203
I241
sS'finish'
p1204
I586
sS'singapore'
p1205
I963
sS'driver'
p1206
I2277
sS'director'
p1207
I1529
sS'running'
p1208
I752
sS'fruit'
p1209
I2535
sS'hanbok'
p1210
I2307
sS'intended'
p1211
I2314
sS'sumo'
p1212
I1501
sS'changing'
p1213
I1198
sS'totally'
p1214
I1346
sS'cartoon'
p1215
I2043
sS'theater'
p1216
I2410
sS'no'
p1217
I125
sS'lady'
p1218
I1475
sS'without'
p1219
I304
sS'solve'
p1220
I1084
sS'bottle'
p1221
I1731
sS'trains'
p1222
I1837
sS'taxi'
p1223
I1836
sS'summer'
p1224
I250
sS'being'
p1225
I393
sS'money'
p1226
I278
sS'rest'
p1227
I703
sS'kill'
p1228
I1561
sS'touch'
p1229
I1347
sS'speed'
p1230
I968
sS'afterwards'
p1231
I2218
sS'death'
p1232
I1252
sS'hint'
p1233
I2552
sS'thinking'
p1234
I409
sS'seems'
p1235
I389
sS'except'
p1236
I918
sS'blog'
p1237
I572
sS'shrine'
p1238
I2658
sS'4'
p1239
I327
sS'tuesday'
p1240
I2199
sS'swim'
p1241
I1278
sS'around'
p1242
I244
sS'read'
p1243
I162
sS'papers'
p1244
I2353
sS'dark'
p1245
I1362
sS'traffic'
p1246
I1279
sS'mom'
p1247
I607
sS'world'
p1248
I197
sS'cd'
p1249
I1735
sS'correcting'
p1250
I1250
sS'60'
p1251
I2213
sS'stranger'
p1252
I2674
sS"'ve"
p1253
I133
sS't'
p1254
I443
sS'paris'
p1255
I2354
sS'competition'
p1256
I2055
sS'respect'
p1257
I2157
sS'daytime'
p1258
I2494
sS'mood'
p1259
I1791
sS'confirm'
p1260
I2481
sS'memories'
p1261
I1670
sS'noon'
p1262
I2343
sS'recorded'
p1263
I2627
sS'moon'
p1264
I1394
sS'throat'
p1265
I2697
sS'23rd'
p1266
I2431
sS'recorder'
p1267
I2372
sS'knife'
p1268
I1388
sS'football'
p1269
I1465
sS'power'
p1270
I608
sS'poem'
p1271
I1955
sS'internship'
p1272
I2315
sS'kyoto'
p1273
I700
sS'communicate'
p1274
I760
sS'tuition'
p1275
I2415
sS'broken'
p1276
I1011
sS'thailand'
p1277
I1596
sS'exciting'
p1278
I738
sS'_'
p1279
I173
sS'on'
p1280
I32
sS'ok'
p1281
I559
sS'oh'
p1282
I525
sS'island'
p1283
I1167
sS'industry'
p1284
I2560
sS'favorite'
p1285
I332
sS'meal'
p1286
I1786
sS'practical'
p1287
I1684
sS'tremendous'
p1288
I2704
sS"'d"
p1289
I335
sS'stand'
p1290
I1832
sS'act'
p1291
I1849
sS'mixed'
p1292
I1672
sS'luck'
p1293
I1080
sS'or'
p1294
I73
sS'road'
p1295
I1135
sS'checkup'
p1296
I2469
sS'communication'
p1297
I860
sS'apologize'
p1298
I2224
sS'elementary'
p1299
I1207
sS'valuable'
p1300
I2421
sS'happening'
p1301
I2309
sS'nowadays'
p1302
I1122
sS'your'
p1303
I111
sS'coluche'
p1304
I2253
sS'prepare'
p1305
I870
sS'area'
p1306
I650
sS'there'
p1307
I49
sS'hey'
p1308
I1214
sS'lol'
p1309
I655
sS'dreaming'
p1310
I2506
sS'start'
p1311
I344
sS'appears'
p1312
I2438
sS'cats'
p1313
I1196
sS'low'
p1314
I927
sS'lot'
p1315
I109
sS'worst'
p1316
I1507
sS'cultures'
p1317
I2265
sS'osaka'
p1318
I1127
sS'lang'
p1319
I236
sS'verb'
p1320
I2422
sS'enough'
p1321
I341
sS'regard'
p1322
I2630
sS'cabinet'
p1323
I1871
sS'bookstore'
p1324
I1621
sS'brain'
p1325
I1623
sS'happier'
p1326
I2548
sS'trying'
p1327
I597
sS'with'
p1328
I31
sS'buying'
p1329
I1360
sS'longer'
p1330
I952
sS'volume'
p1331
I2719
sS'october'
p1332
I1396
sS'improved'
p1333
I2557
sS'comics'
p1334
I1446
sS'potato'
p1335
I2615
sS'tiny'
p1336
I2194
sS'sadness'
p1337
I2384
sS'grass'
p1338
I1910
sS'agree'
p1339
I809
sS'strongly'
p1340
I1698
sS'gone'
p1341
I817
sS'videos'
p1342
I2715
sS'cinema'
p1343
I2471
sS'exhausted'
p1344
I1258
sS'certain'
p1345
I1246
sS'accents'
p1346
I1847
sS'describe'
p1347
I2496
sS'moved'
p1348
I747
sS'sales'
p1349
I1691
sS'deep'
p1350
I1455
sS'an'
p1351
I68
sS'as'
p1352
I48
sS'tasty'
p1353
I2690
sS'at'
p1354
I36
sS'hobbies'
p1355
I1554
sS'girlfriend'
p1356
I920
sS'watched'
p1357
I357
sS'horse'
p1358
I2312
sS'film'
p1359
I665
sS'ice'
p1360
I1660
sS'again'
p1361
I179
sS'yoga'
p1362
I2210
sS'bored'
p1363
I1244
sS'graduate'
p1364
I818
sS'field'
p1365
I1212
sS'housework'
p1366
I2105
sS'5'
p1367
I370
sS'you'
p1368
I21
sS'thousand'
p1369
I2192
sS'poor'
p1370
I481
sS'vocabulary'
p1371
I851
sS'students'
p1372
I261
sS'teeth'
p1373
I2692
sS'gifts'
p1374
I1765
sS'important'
p1375
I273
sS'stocks'
p1376
I1981
sS'pool'
p1377
I1326
sS'missed'
p1378
I1790
sS'building'
p1379
I1292
sS'difficulties'
p1380
I1891
sS'calls'
p1381
I2465
sS'wife'
p1382
I462
sS'finished'
p1383
I504
sS'barcelona'
p1384
I2450
sS'hello'
p1385
I276
sS'remioromen'
p1386
I2377
sS'u'
p1387
I529
sS'overseas'
p1388
I2141
sS'starting'
p1389
I787
sS'original'
p1390
I1224
sS'all'
p1391
I78
sS'surrounded'
p1392
I2405
sS'forget'
p1393
I666
sS'chinese'
p1394
I318
sS'caused'
p1395
I1876
sS'lack'
p1396
I1563
sS'dollar'
p1397
I1894
sS'month'
p1398
I333
sS'commute'
p1399
I1737
sS'dish'
p1400
I1893
sS'follow'
p1401
I947
sS'expressions'
p1402
I1304
sS'children'
p1403
I336
sS'causes'
p1404
I1877
sS'apartment'
p1405
I1150
sS'hunting'
p1406
I1469
sS'tv'
p1407
I339
sS'opportunities'
p1408
I1397
sS'spirit'
p1409
I2181
sS'to'
p1410
I5
sS'program'
p1411
I637
sS'dairy'
p1412
I2266
sS'spain'
p1413
I2396
sS'safety'
p1414
I1333
sS'enjoying'
p1415
I1208
sS'presentation'
p1416
I1039
sS'ta'
p1417
I2687
sS'activities'
p1418
I1148
sS'woman'
p1419
I530
sS'worse'
p1420
I829
sS'song'
p1421
I595
sS'very'
p1422
I40
sS'bune'
p1423
I2464
sS'fat'
p1424
I1158
sS'personnel'
p1425
I2357
sS'sons'
p1426
I2177
sS'diary'
p1427
I155
sS'decide'
p1428
I1363
sS'fall'
p1429
I653
sS'sony'
p1430
I2393
sS'ticket'
p1431
I1994
sS'difference'
p1432
I763
sS'ramen'
p1433
I991
sS'condition'
p1434
I1448
sS'`'
p1435
I499
sS'washing'
p1436
I1093
sS'list'
p1437
I1390
sS'joined'
p1438
I782
sS'grandfather'
p1439
I2542
sS'large'
p1440
I1078
sS'sang'
p1441
I2386
sS'sand'
p1442
I1817
sS'harry'
p1443
I1655
sS'small'
p1444
I343
sS'population'
p1445
I1805
sS'ten'
p1446
I970
sS'tea'
p1447
I647
sS'streets'
p1448
I1591
sS'understanding'
p1449
I1712
sS'past'
p1450
I509
sS'19'
p1451
I1844
sS'rate'
p1452
I1810
sS'titles'
p1453
I2412
sS'design'
p1454
I1066
sS'pass'
p1455
I676
sS'further'
p1456
I2088
sS'nba'
p1457
I1567
sS'podcasts'
p1458
I2360
sS'what'
p1459
I54
sS'stood'
p1460
I2399
sS'clock'
p1461
I1443
sS'sun'
p1462
I1183
sS'section'
p1463
I2651
sS'learner'
p1464
I2325
sS'anniversary'
p1465
I2025
sS'version'
p1466
I1714
sS'run'
p1467
I474
sS'learned'
p1468
I628
sS'public'
p1469
I931
sS'movement'
p1470
I2129
sS'full'
p1471
I516
sS'answers'
p1472
I1433
sS'hours'
p1473
I321
sS'november'
p1474
I2134
sS'strong'
p1475
I459
sS'search'
p1476
I1496
sS'bible'
p1477
I2232
sS'houses'
p1478
I1659
sS'experience'
p1479
I411
sS'airport'
p1480
I940
sS'base'
p1481
I2451
sS'social'
p1482
I1276
sS'action'
p1483
I1287
sS'via'
p1484
I2423
sS'family'
p1485
I228
sS'suddenly'
p1486
I680
sS'put'
p1487
I403
sS'semester'
p1488
I996
sS'subculture'
p1489
I2401
sS'eye'
p1490
I2081
sS'takes'
p1491
I681
sS'answered'
p1492
I1720
sS'two'
p1493
I139
sS'6'
p1494
I485
sS'taken'
p1495
I788
sS'more'
p1496
I74
sS'flat'
p1497
I2530
sS'door'
p1498
I834
sS'knows'
p1499
I1474
sS'company'
p1500
I242
sS'corrected'
p1501
I1103
sS'excuse'
p1502
I1755
sS'basically'
p1503
I2452
sS'broke'
p1504
I943
sS'particular'
p1505
I1573
sS'known'
p1506
I654
sS'karaoke'
p1507
I1775
sS'glad'
p1508
I635
sS'town'
p1509
I378
sS'keeping'
p1510
I1264
sS'hour'
p1511
I718
sS'science'
p1512
I1270
sS'mall'
p1513
I1668
sS'paragraph'
p1514
I1943
sS'nine'
p1515
I2342
sS'learn'
p1516
I153
sS'male'
p1517
I2123
sS'history'
p1518
I590
sS'beautiful'
p1519
I298
sS'compare'
p1520
I1882
sS'challenging'
p1521
I1438
sS'brown'
p1522
I2037
sS'share'
p1523
I1234
sS'accept'
p1524
I1610
sS'autumn'
p1525
I913
sS'numbers'
p1526
I1796
sS'sense'
p1527
I933
sS'phrase'
p1528
I1323
sS'airplane'
p1529
I1431
sS'dress'
p1530
I1533
sS'!'
p1531
I13
sS'information'
p1532
I557
sS'needs'
p1533
I902
sS'court'
p1534
I2488
sS'goal'
p1535
I716
sS'awkward'
p1536
I1863
sS'rather'
p1537
I992
sS'stayed'
p1538
I847
sS'plant'
p1539
I1325
sS'okay'
p1540
I1124
sS'plans'
p1541
I783
sS'advice'
p1542
I939
sS'plane'
p1543
I1953
sS'blood'
p1544
I1291
sS'coming'
p1545
I415
sS'response'
p1546
I2637
sS'a'
p1547
I6
sS'short'
p1548
I511
sS'crowded'
p1549
I1741
sS'author'
p1550
I1151
sS'volleyball'
p1551
I2718
sS'perhaps'
p1552
I1948
sS'responsibility'
p1553
I2158
sS'dream'
p1554
I464
sS'playing'
p1555
I427
sS'help'
p1556
I148
sS'reservoir'
p1557
I2635
sS'september'
p1558
I997
sS'developed'
p1559
I1890
sS'soon'
p1560
I260
sS'held'
p1561
I741
sS'attitude'
p1562
I2028
sS'paper'
p1563
I904
sS'through'
p1564
I331
sS'hell'
p1565
I2099
sS'suffer'
p1566
I2184
sS'its'
p1567
I316
sS'24'
p1568
I1285
sS'25'
p1569
I1355
sS'style'
p1570
I583
sS'27'
p1571
I2432
sS'20'
p1572
I778
sS'21'
p1573
I1605
sS'22'
p1574
I2013
sS'23'
p1575
I1606
sS'pray'
p1576
I1402
sS'sale'
p1577
I2385
sS'actually'
p1578
I252
sS'late'
p1579
I489
sS'resort'
p1580
I2636
sS'parts'
p1581
I1801
sS'symptoms'
p1582
I2686
sS'soccer'
p1583
I706
sS'might'
p1584
I294
sS'colleague'
p1585
I2053
sS'evening'
p1586
I688
sS'return'
p1587
I932
sS'calm'
p1588
I1873
sS'food'
p1589
I255
sS'ff4'
p1590
I2524
sS'foot'
p1591
I1761
sS'bigger'
p1592
I1730
sS'easily'
p1593
I642
sS'fantasy'
p1594
I2522
sS'always'
p1595
I143
sS'courses'
p1596
I2261
sS'someone'
p1597
I307
sS'stopped'
p1598
I806
sS'turns'
p1599
I2707
sS'found'
p1600
I187
sS'friendship'
p1601
I2295
sS'heavy'
p1602
I717
sS'everyone'
p1603
I258
sS'england'
p1604
I1535
sS'another'
p1605
I314
sS'weight'
p1606
I777
sS'generation'
p1607
I2296
sS'house'
p1608
I176
sS'energy'
p1609
I626
sS'hard'
p1610
I159
sS'reduce'
p1611
I1812
sS'idea'
p1612
I466
sS'gun'
p1613
I2304
sS'oil'
p1614
I2137
sS'expect'
p1615
I1112
sS'operation'
p1616
I1939
sS'balance'
p1617
I2029
sS'event'
p1618
I764
sS'really'
p1619
I87
sS'anxious'
p1620
I2222
sS'flower'
p1621
I1464
sS'alcohol'
p1622
I1288
sS'wondered'
p1623
I2207
sS'item'
p1624
I1662
sS'since'
p1625
I146
sS'research'
p1626
I1134
sS'participants'
p1627
I1800
sS'health'
p1628
I799
sS'7'
p1629
I552
sS'learners'
p1630
I2573
sS'issue'
p1631
I1473
sS'bye'
p1632
I734
sS'bass'
p1633
I2454
sS'friday'
p1634
I715
sS'guess'
p1635
I555
sS'pleasant'
p1636
I1680
sS'difficulty'
p1637
I1155
sS'reason'
p1638
I295
sS'toy'
p1639
I1504
sS'styles'
p1640
I2400
sS'members'
p1641
I900
sS'imagine'
p1642
I1556
sS'ask'
p1643
I494
sS'teach'
p1644
I382
sS'beginning'
p1645
I1057
sS'feb'
p1646
I2523
sS'terrible'
p1647
I876
sS'american'
p1648
I417
sS'twenty'
p1649
I2417
sS'scheduled'
p1650
I2646
sS'snowboarding'
p1651
I1975
sS'fallen'
p1652
I2285
sS'major'
p1653
I746
sS'dont'
p1654
I2071
sS'feel'
p1655
I113
sS'number'
p1656
I721
sS'welcome'
p1657
I1601
sS'traveled'
p1658
I1997
sS'feet'
p1659
I1306
sS'done'
p1660
I780
sS'climbing'
p1661
I2475
sS'miss'
p1662
I720
sS'story'
p1663
I302
sS'temperature'
p1664
I969
sS'script'
p1665
I2169
sS'introduction'
p1666
I1311
sS'together'
p1667
I461
sS'5th'
p1668
I1429
sS'least'
p1669
I518
sS'paint'
p1670
I2602
sS'station'
p1671
I631
sS'smile'
p1672
I1587
sS'passed'
p1673
I519
sS'hundred'
p1674
I2313
sS'banana'
p1675
I2227
sS'store'
p1676
I646
sS'headache'
p1677
I1769
sS'muscles'
p1678
I2131
sS'relationship'
p1679
I1175
sS'relieved'
p1680
I1492
sS'hotel'
p1681
I781
sS'park'
p1682
I618
sS'luckily'
p1683
I2582
sS'part'
p1684
I285
sS'typhoon'
p1685
I850
sS'translation'
p1686
I1838
sS'believe'
p1687
I346
sS'obama'
p1688
I2346
sS'king'
p1689
I2320
sS'kind'
p1690
I256
sS'b'
p1691
I672
sS'kindly'
p1692
I2319
sS'double'
p1693
I1532
sS'youth'
p1694
I1508
sS'nevertheless'
p1695
I1794
sS'marriage'
p1696
I1785
sS'supposed'
p1697
I1343
sS'kindle'
p1698
I1313
sS'motivation'
p1699
I1483
sS'uncomfortable'
p1700
I2200
sS'danish'
p1701
I2493
sS'pedometer'
p1702
I1946
sS'selling'
p1703
I2170
sS'sentences'
p1704
I404
sS'aged'
p1705
I2023
sS'sell'
p1706
I1233
sS'mountain'
p1707
I1319
sS'nights'
p1708
I1935
sS'built'
p1709
I1624
sS'dancing'
p1710
I1064
sS'self'
p1711
I827
sS'also'
p1712
I103
sS'costs'
p1713
I1524
sS'finding'
p1714
I1463
sS'tool'
p1715
I2196
sS'graduating'
p1716
I2298
sS'play'
p1717
I290
sS'experienced'
p1718
I1461
sS'electric'
p1719
I1299
sS'eggs'
p1720
I2077
sS'reach'
p1721
I2154
sS'most'
p1722
I149
sS'experiences'
p1723
I1303
sS'plan'
p1724
I432
sS'eaten'
p1725
I1534
sS'70'
p1726
I2014
sS'nothing'
p1727
I402
sS'seasons'
p1728
I2649
sS'extremely'
p1729
I2080
sS'refrigerator'
p1730
I1813
sS'bug'
p1731
I2463
sS'mobile'
p1732
I990
sS'clear'
p1733
I1249
sS'sometimes'
p1734
I220
sS'cover'
p1735
I2262
sS'km'
p1736
I2321
sS'traditional'
p1737
I632
sS'clean'
p1738
I687
sS'latest'
p1739
I1779
sS'physics'
p1740
I2612
sS'joining'
p1741
I2566
sS'ghibli'
p1742
I1548
sS'humid'
p1743
I1773
sS'gold'
p1744
I1379
sS'cds'
p1745
I2044
sS'carefully'
p1746
I1625
sS'hokkaido'
p1747
I1216
sS'find'
p1748
I207
sS'access'
p1749
I2016
sS'northern'
p1750
I2597
sS'nervous'
p1751
I868
sS'hope'
p1752
I141
sS'unhappy'
p1753
I1840
sS'failed'
p1754
I1540
sS'flights'
p1755
I2290
sS'pretty'
p1756
I785
sS'8'
p1757
I189
sS'circle'
p1758
I2472
sS'discuss'
p1759
I1744
sS'hip'
p1760
I2102
sS'his'
p1761
I91
sS'hit'
p1762
I1215
sS'express'
p1763
I892
sS'sunny'
p1764
I1184
sS'grocery'
p1765
I2545
sS'trees'
p1766
I1142
sS'cheaper'
p1767
I1736
sS'famous'
p1768
I372
sS'feels'
p1769
I2085
sS'grew'
p1770
I1768
sS'preparing'
p1771
I1230
sS'reply'
p1772
I1493
sS'during'
p1773
I288
sS'him'
p1774
I129
sS'browsing'
p1775
I2462
sS'cry'
p1776
I1251
sS'common'
p1777
I736
sS'gotten'
p1778
I1551
sS'x'
p1779
I1191
sS'river'
p1780
I1410
sS'wrote'
p1781
I498
sS'restaurants'
p1782
I993
sS'scenery'
p1783
I1819
sS'bars'
p1784
I1727
sS'set'
p1785
I773
sS'art'
p1786
I1098
sS'uses'
p1787
I2000
sS'culture'
p1788
I420
sS'see'
p1789
I114
sS'individual'
p1790
I2559
sS'are'
p1791
I33
sS'sea'
p1792
I906
sS'close'
p1793
I599
sS'arm'
p1794
I2439
sS'project'
p1795
I1330
sS'#'
p1796
I1353
sS'learnt'
p1797
I2326
sS'visiting'
p1798
I2003
sS'pictures'
p1799
I593
sS'wow'
p1800
I1190
sS'currently'
p1801
I1525
sS'please'
p1802
I138
sS'won'
p1803
I883
sS'various'
p1804
I638
sS'probably'
p1805
I562
sS'sixth'
p1806
I2390
sS'knowing'
p1807
I1778
sS'korea'
p1808
I361
sS'recently'
p1809
I257
sS'missing'
p1810
I2590
sS'sold'
p1811
I1180
sS'attention'
p1812
I1055
sS'incident'
p1813
I2558
sS'succeed'
p1814
I2402
sS'fluently'
p1815
I1027
sS'both'
p1816
I471
sS'c'
p1817
I944
sS'last'
p1818
I118
sS'license'
p1819
I2576
sS'restaurant'
p1820
I458
sS'annual'
p1821
I2435
sS'foreign'
p1822
I311
sS'sensitive'
p1823
I2172
sS'became'
p1824
I524
sS'forgotten'
p1825
I1764
sS'momoko'
p1826
I1393
sS'whole'
p1827
I565
sS'liked'
p1828
I839
sS'point'
p1829
I538
sS'simple'
p1830
I645
sS'sweet'
p1831
I1002
sS'address'
p1832
I2020
sS'manners'
p1833
I2330
sS'community'
p1834
I978
sS'simply'
p1835
I2663
sS'likes'
p1836
I1120
sS'church'
p1837
I1441
sS'throughout'
p1838
I2193
sS'along'
p1839
I912
sS'expensive'
p1840
I696
sS'cream'
p1841
I1886
sS'raise'
p1842
I2369
sS'create'
p1843
I1635
sS'political'
p1844
I1957
sS'due'
p1845
I916
sS'earthquake'
p1846
I495
sS'pc'
p1847
I822
sS'secret'
p1848
I1821
sS'meeting'
p1849
I500
sS'woke'
p1850
I881
sS'pm'
p1851
I824
sS'dialogue'
p1852
I2500
sS'lived'
p1853
I866
sS'flight'
p1854
I1025
sS'fire'
p1855
I1649
sS'gas'
p1856
I2538
sS'else'
p1857
I1070
sS'whatever'
p1858
I1506
sS'understand'
p1859
I203
sS'prices'
p1860
I2150
sS'despite'
p1861
I2065
sS'plants'
p1862
I1129
sS'look'
p1863
I397
sS'kamakura'
p1864
I2316
sS'straight'
p1865
I1982
sS'tip'
p1866
I1502
sS'technical'
p1867
I2408
sS'while'
p1868
I196
sS'homework'
p1869
I603
sS'behavior'
p1870
I1437
sS'fun'
p1871
I354
sS'guide'
p1872
I2303
sS'real'
p1873
I594
sS'hoping'
p1874
I2311
sS'cleaned'
p1875
I2248
sS'itself'
p1876
I1560
sS'skype'
p1877
I619
sS'ready'
p1878
I1967
sS'funny'
p1879
I488
sS'handsome'
p1880
I2096
sS'italy'
p1881
I1661
sS'shirt'
p1882
I2174
sS'anymore'
p1883
I975
sS'belong'
p1884
I1729
sS'shorter'
p1885
I2656
sS'rules'
p1886
I2163
sS'kimono'
p1887
I1777
sS'grand'
p1888
I2299
sS'9'
p1889
I730
sS'daughters'
p1890
I1527
sS'higher'
p1891
I1770
sS'development'
p1892
I1365
sS'used'
p1893
I237
sS'classmates'
p1894
I1201
sS'lie'
p1895
I1316
sS'assignment'
p1896
I2440
sS'yesterday'
p1897
I124
sS'holidays'
p1898
I1074
sS'moment'
p1899
I690
sS'moving'
p1900
I1268
sS'purpose'
p1901
I1331
sS'nickname'
p1902
I2132
sS'recent'
p1903
I1083
sS'early'
p1904
I449
sS'lower'
p1905
I1479
sS'noodle'
p1906
I2596
sS'older'
p1907
I957
sS'anybody'
p1908
I1289
sS'analysis'
p1909
I1855
sS'obviously'
p1910
I2136
sS'person'
p1911
I264
sS'anime'
p1912
I1614
sS'y'
p1913
I2730
sS'entry'
p1914
I329
sS'spend'
p1915
I540
sS'listening'
p1916
I421
sS'ceo'
p1917
I2468
sS'sound'
p1918
I670
sS'shape'
p1919
I1823
sS'questions'
p1920
I803
sS'using'
p1921
I287
sS'useful'
p1922
I692
sS'taiwan'
p1923
I875
sS'cut'
p1924
I833
sS'$'
p1925
I1005
sS'cup'
p1926
I793
sS'disappointed'
p1927
I1067
sS'workers'
p1928
I854
sS'eager'
p1929
I1748
sS'parents'
p1930
I334
sS'crying'
p1931
I1638
sS'contrary'
p1932
I2258
sS'excited'
p1933
I601
sS'surprised'
p1934
I541
sS'customers'
p1935
I1015
sS'australia'
p1936
I684
sS'march'
p1937
I1170
sS'big'
p1938
I253
sS'couple'
p1939
I651
sS'tiring'
p1940
I2195
sS'matters'
p1941
I2332
sS'game'
p1942
I315
sS'foreigners'
p1943
I815
sS'damage'
p1944
I2267
sS'bit'
p1945
I367
sS'helpful'
p1946
I1162
sS'd'
p1947
I487
sS'shaped'
p1948
I2655
sS'signal'
p1949
I2662
sS'continue'
p1950
I624
sS'popular'
p1951
I483
sS'essential'
p1952
I1646
sS'google'
p1953
I922
sS'often'
p1954
I284
sS'absolutely'
p1955
I1608
sS'spring'
p1956
I527
sS'some'
p1957
I60
sS'back'
p1958
I156
sS'understood'
p1959
I2711
sS'economic'
p1960
I1254
sS'examples'
p1961
I1754
sS'mirror'
p1962
I2589
sS'curious'
p1963
I1452
sS'ourselves'
p1964
I1570
sS'gradually'
p1965
I1767
sS'scale'
p1966
I2645
sS'pet'
p1967
I1949
sS'decision'
p1968
I1454
sS'per'
p1969
I1227
sS'pen'
p1970
I1574
sS'behave'
p1971
I2229
sS'temple'
p1972
I1594
sS'either'
p1973
I1206
sS'be'
p1974
I41
sS'eating'
p1975
I515
sS'remembered'
p1976
I1176
sS'continuing'
p1977
I2257
sS'confidence'
p1978
I1361
sS'step'
p1979
I1085
sS'santa'
p1980
I2166
sS'become'
p1981
I325
sS'ache'
p1982
I2017
sS'abroad'
p1983
I493
sS'goods'
p1984
I1908
sS'consumption'
p1985
I2482
sS'anything'
p1986
I345
sS'wore'
p1987
I2729
sS'favor'
p1988
I2286
sS'graduation'
p1989
I948
sS'drama'
p1990
I1069
sS'mouth'
p1991
I2591
sS'sapporo'
p1992
I2167
sS'seeing'
p1993
I804
sS'plenty'
p1994
I1682
sS'hometown'
p1995
I864
sS'into'
p1996
I223
sS'within'
p1997
I1351
sS'services'
p1998
I2653
sS'appropriate'
p1999
I2225
sS'lesson'
p2000
I558
sS'sports'
p2001
I934
sS'rolls'
p2002
I2641
sS'sightseeing'
p2003
I1415
sS'impressed'
p2004
I865
sS'spending'
p2005
I2180
sS'question'
p2006
I457
sS'fast'
p2007
I674
sS'pronunciation'
p2008
I1131
sS'doubt'
p2009
I1746
sS'suit'
p2010
I2680
sS'forward'
p2011
I395
sS'translate'
p2012
I1280
sS'twitter'
p2013
I727
sS'mountains'
p2014
I2337
sS'himself'
p2015
I1380
sS'invite'
p2016
I2563
sS'pronounce'
p2017
I2365
sS'relaxed'
p2018
I1686
sS'boys'
p2019
I2036
sS'properly'
p2020
I2366
sS'link'
p2021
I2578
sS'russian'
p2022
I1232
sS'episode'
p2023
I2517
sS'line'
p2024
I1034
sS'junior'
p2025
I800
sS'raising'
p2026
I2153
sS'posted'
p2027
I2148
sS'fries'
p2028
I2534
sS'up'
p2029
I93
sS'us'
p2030
I163
sS'windows'
p2031
I2426
sS"'re"
p2032
I569
sS'uk'
p2033
I1505
sS'fried'
p2034
I1650
sS'similar'
p2035
I1274
sS'called'
p2036
I266
sS'ordered'
p2037
I1486
sS'adults'
p2038
I2022
sS'stick'
p2039
I2672
sS'metal'
p2040
I2334
sS'chan'
p2041
I2244
sS'entrance'
p2042
I1110
sS'single'
p2043
I1416
sS'chat'
p2044
I1521
sS'cafe'
p2045
I1012
sS'rainy'
p2046
I669
sS'%'
p2047
I1048
sS'peace'
p2048
I2143
sS'application'
p2049
I1356
sS'nap'
p2050
I1931
sS'definitely'
p2051
I1641
sS'department'
p2052
I1456
sS'nice'
p2053
I180
sS'draw'
p2054
I1205
sS'favourite'
p2055
I1900
sS'problems'
p2056
I526
sS'prepared'
p2057
I1038
sS'helping'
p2058
I2100
sS'meaning'
p2059
I701
sS'formal'
p2060
I2532
sS'meals'
p2061
I1669
sS'structure'
p2062
I2677
sS'ago'
p2063
I225
sS'lane'
p2064
I2571
sS'e'
p2065
I465
sS'dvd'
p2066
I1369
sS'age'
p2067
I546
sS'youtube'
p2068
I1509
sS'walked'
p2069
I1239
sS'cooked'
p2070
I1633
sS'carrying'
p2071
I2241
sS'yokohama'
p2072
I1352
sS'fresh'
p2073
I982
sS'2008'
p2074
I2211
sS'2009'
p2075
I974
sS'requires'
p2076
I1688
sS'having'
p2077
I435
sS'once'
p2078
I374
sS'essay'
p2079
I1256
sS'code'
p2080
I1629
sS'belonged'
p2081
I2456
sS'results'
p2082
I2159
sS'enjoyable'
p2083
I1536
sS'windy'
p2084
I2008
sS'go'
p2085
I67
sS'barbecue'
p2086
I2031
sS'seemed'
p2087
I644
sS'contacted'
p2088
I2483
sS'vietnamese'
p2089
I2203
sS'concerned'
p2090
I1153
sS'shanghai'
p2091
I1974
sS'young'
p2092
I444
sS'send'
p2093
I678
sS'nose'
p2094
I1676
sS'languages'
p2095
I439
sS'helps'
p2096
I765
sS'dislike'
p2097
I2502
sS'friendly'
p2098
I1378
sS'sent'
p2099
I873
sS'garden'
p2100
I1114
sS'continues'
p2101
I2485
sS'kitty'
p2102
I2113
sS'wishes'
p2103
I1715
sS'facebook'
p2104
I1210
sS'telling'
p2105
I2693
sS'practicing'
p2106
I1960
sS'drinking'
p2107
I615
sS'continued'
p2108
I1449
sS'fukuoka'
p2109
I1547
sS'magic'
p2110
I2122
sS'eve'
p2111
I1371
sS'fewer'
p2112
I2289
sS'try'
p2113
I181
sS'assignments'
p2114
I2441
sS'race'
p2115
I751
sS'ride'
p2116
I1689
sS'someday'
p2117
I908
sS'crow'
p2118
I1636
sS'waking'
p2119
I2722
sS'blowing'
p2120
I2234
sS'video'
p2121
I708
sS'traveling'
p2122
I1710
sS'picked'
p2123
I2145
sS'haiku'
p2124
I1912
sS'spaghetti'
p2125
I2179
sS'click'
p2126
I2048
sS'depression'
p2127
I2064
sS'universities'
p2128
I1426
sS'genpet'
p2129
I2297
sS'business'
p2130
I379
sS'wallet'
p2131
I2724
sS'giving'
p2132
I1653
sS'fine'
p2133
I739
sS'cell'
p2134
I1197
sS'seconds'
p2135
I2650
sS'waiting'
p2136
I729
sS'indian'
p2137
I1032
sS'capital'
p2138
I2041
sS';'
p2139
I206
sS'exercise'
p2140
I835
sS'3d'
p2141
I1286
sS'body'
p2142
I463
sS'led'
p2143
I2327
sS'chose'
p2144
I1440
sS'degree'
p2145
I1364
sS'exchange'
p2146
I1022
sS'gathered'
p2147
I2092
sS'growing'
p2148
I1552
sS'let'
p2149
I280
sS'sink'
p2150
I2664
sS'others'
p2151
I348
sS'sing'
p2152
I1235
sS'waste'
p2153
I2005
sS'great'
p2154
I235
sS'talent'
p2155
I2187
sS'receive'
p2156
I1685
sS'30'
p2157
I544
sS'leaving'
p2158
I1389
sS'engine'
p2159
I2516
sS'products'
p2160
I1329
sS'menu'
p2161
I2333
sS'opinion'
p2162
I658
sS'climb'
p2163
I2250
sS'makes'
p2164
I455
sS'maker'
p2165
I2329
sS'fulfill'
p2166
I2537
sS'named'
p2167
I955
sS'apple'
p2168
I1616
sS'beijing'
p2169
I2230
sS'win'
p2170
I1094
sS'manage'
p2171
I1391
sS'private'
p2172
I1404
sS'names'
p2173
I1930
sS'apply'
p2174
I1721
sS'singing'
p2175
I1335
sS'announced'
p2176
I2220
sS'standing'
p2177
I1277
sS'use'
p2178
I147
sS'from'
p2179
I52
sS'usa'
p2180
I776
sS'&'
p2181
I502
sS'theme'
p2182
I2411
sS'next'
p2183
I158
sS'few'
p2184
I248
sS'camera'
p2185
I855
sS'examination'
p2186
I1021
sS'themselves'
p2187
I1344
sS'sort'
p2188
I1696
sS'majoring'
p2189
I2328
sS'started'
p2190
I232
sS'becomes'
p2191
I1866
sS'about'
p2192
I38
sS'sore'
p2193
I2178
sS'train'
p2194
I387
sS'ashamed'
p2195
I1858
sS'baby'
p2196
I640
sS'central'
p2197
I2243
sS'women'
p2198
I882
sS'customer'
p2199
I2061
sS'escaped'
p2200
I2518
sS'account'
p2201
I1052
sS'animals'
p2202
I1193
sS'salad'
p2203
I2643
sS'f'
p2204
I1462
sS'this'
p2205
I25
sS'challenge'
p2206
I1152
sS'sounded'
p2207
I1828
sS'anywhere'
p2208
I2436
sS'obvious'
p2209
I2347
sS'thin'
p2210
I2696
sS'of'
p2211
I12
sS'meet'
p2212
I249
sS'performed'
p2213
I2607
sS'control'
p2214
I861
sS'eiken'
p2215
I2078
sS'process'
p2216
I1405
sS'discussed'
p2217
I1892
sS'halloween'
p2218
I1261
sS'high'
p2219
I204
sS'professor'
p2220
I1808
sS'something'
p2221
I186
sS'wonderful'
p2222
I671
sS'native'
p2223
I436
sS'hesitate'
p2224
I1913
sS'united'
p2225
I1348
sS'sit'
p2226
I1179
sS'six'
p2227
I844
sS'materials'
p2228
I2124
sS'located'
p2229
I1265
sS'forest'
p2230
I1905
sS'animal'
p2231
I2024
sS'instead'
p2232
I675
sS'nara'
p2233
I1792
sS'stock'
p2234
I1980
sS'profile'
p2235
I2364
sS'buildings'
p2236
I1734
sS'attend'
p2237
I1434
sS'farm'
p2238
I2084
sS'watch'
p2239
I369
sS'notebook'
p2240
I2345
sS'records'
p2241
I2373
sS'spelling'
p2242
I2398
sS'realized'
p2243
I563
sS'light'
p2244
I898
sS'lines'
p2245
I2119
sS'robot'
p2246
I1970
sS'sendai'
p2247
I2171
sS'courage'
p2248
I2059
sS'honestly'
p2249
I1468
sS'swimming'
p2250
I874
sS'breast'
p2251
I2461
sS'move'
p2252
I657
sS'including'
p2253
I1031
sS'looks'
p2254
I592
sS'quake'
p2255
I2625
sS'mentioned'
p2256
I1787
sS'interpreter'
p2257
I2561
sS'earlier'
p2258
I1458
sS'perfect'
p2259
I1128
sS'write'
p2260
I131
sS'chosen'
p2261
I1879
sS'concept'
p2262
I2479
sS'housewife'
p2263
I2104
sS'kindergarten'
p2264
I1386
sS'willing'
p2265
I2007
sS'degrees'
p2266
I2268
sS'choose'
p2267
I759
sS'hobby'
p2268
I766
sS'holiday'
p2269
I396
sS'2011'
p2270
I1096
sS'<'
p2271
I662
sS'dad'
p2272
I1204
sS'designs'
p2273
I2498
sS'bilingual'
p2274
I2458
sS'murakami'
p2275
I2130
sS'flour'
p2276
I2531
sS'practice'
p2277
I456
sS'mention'
p2278
I1926
sS'snake'
p2279
I2665
sS'hands'
p2280
I923
sS'front'
p2281
I616
sS'day'
p2282
I71
sS'articles'
p2283
I1053
sS'february'
p2284
I1543
sS'university'
p2285
I184
sS'truth'
p2286
I1281
sS'shaking'
p2287
I2654
sS'emo'
p2288
I2512
sS'glasses'
p2289
I1907
sS'beginner'
p2290
I1728
sS'doing'
p2291
I349
sS'adventure'
p2292
I2216
sS'parties'
p2293
I2356
sS'product'
p2294
I2151
sS'related'
p2295
I1133
sS'society'
p2296
I726
sS'books'
p2297
I271
sS'our'
p2298
I98
sS'80'
p2299
I2015
sS'special'
p2300
I497
sS'out'
p2301
I126
sS"'"
p2302
I107
sS'bag'
p2303
I914
sS'lecture'
p2304
I1219
sS'cause'
p2305
I1627
sS'math'
p2306
I1035
sS'afford'
p2307
I1852
sS'umbrella'
p2308
I2419
sS'ielts'
p2309
I2555
sS'dictionary'
p2310
I762
sS'ipod'
p2311
I2110
sS'activity'
p2312
I2019
sS'release'
p2313
I2376
sS'completely'
p2314
I1063
sS'surely'
p2315
I1833
sS'york'
p2316
I790
sS'compositions'
p2317
I2477
sS'scary'
p2318
I1495
sS'yard'
p2319
I2011
sS'her'
p2320
I83
sS'g'
p2321
I2090
sS'phrases'
p2322
I1324
sS'could'
p2323
I77
sS'times'
p2324
I405
sS'conversation'
p2325
I533
sS'4th'
p2326
I1845
sS'pudding'
p2327
I1965
sS'museum'
p2328
I2338
sS'south'
p2329
I1137
sS'exam'
p2330
I423
sS'powerful'
p2331
I2616
sS'scene'
p2332
I994
sS'owner'
p2333
I1225
sS'reached'
p2334
I2155
sS'quality'
p2335
I1809
sS'ancient'
p2336
I1432
sS'strict'
p2337
I2676
sS'festival'
p2338
I714
sS'journals'
p2339
I1664
sS'accent'
p2340
I1051
sS'system'
p2341
I542
sS'relations'
p2342
I2632
sS'priority'
p2343
I2618
sS'their'
p2344
I106
sS'attack'
p2345
I2443
sS'perfectly'
p2346
I1398
sS'final'
p2347
I1024
sS'painful'
p2348
I1572
sS'stomach'
p2349
I1140
sS'stars'
p2350
I1590
sS'academy'
p2351
I1609
sS'completed'
p2352
I2056
sS'exactly'
p2353
I981
sS'regards'
p2354
I2374
sS'july'
p2355
I1384
sS'runners'
p2356
I2383
sS'neck'
p2357
I2594
sS'ipad'
p2358
I1917
sS'loved'
p2359
I953
sS'colleagues'
p2360
I1522
sS'boring'
p2361
I694
sS'bed'
p2362
I438
sS'claim'
p2363
I2473
sS'patients'
p2364
I2142
sS'loves'
p2365
I2121
sS'visited'
p2366
I633
sS'bet'
p2367
I2033
sS'clip'
p2368
I2251
sS'comfortable'
p2369
I859
sS'tonight'
p2370
I755
sS'gentle'
p2371
I2093
sS'have'
p2372
I19
sS'need'
p2373
I174
sS'apparently'
p2374
I2437
sS'clearly'
p2375
I1442
sS'afraid'
p2376
I623
sS'dishes'
p2377
I1068
sS'studying'
p2378
I211
sS'kittens'
p2379
I2568
sS'able'
p2380
I238
sS'mid'
p2381
I2335
sS'instance'
p2382
I1383
sS'relatives'
p2383
I1815
sS'which'
p2384
I99
sS'korean'
p2385
I452
sS'='
p2386
I514
sS'lecturer'
p2387
I2117
sS'lectures'
p2388
I2574
sS'unless'
p2389
I2712
sS'who'
p2390
I84
sS'visa'
p2391
I2002
sS'eight'
p2392
I1751
sS'sophisticated'
p2393
I2668
sS'medal'
p2394
I2125
sS'class'
p2395
I185
sS'cellphone'
p2396
I2467
sS'url'
p2397
I416
sS'gather'
p2398
I2091
sS'upset'
p2399
I1600
sS'face'
p2400
I554
sS'looked'
p2401
I580
sS'construction'
p2402
I1885
sS'movie'
p2403
I188
sS'painting'
p2404
I1173
sS'fact'
p2405
I431
sS'gain'
p2406
I1308
sS'son'
p2407
I375
sS'impression'
p2408
I1471
sS'atmosphere'
p2409
I1241
sS'chances'
p2410
I1628
sS'text'
p2411
I1595
sS'stove'
p2412
I2673
sS'anyway'
p2413
I296
sS'bring'
p2414
I888
sS'planning'
p2415
I823
sS'chicken'
p2416
I1248
sS'pleased'
p2417
I1681
sS'staff'
p2418
I805
sS'envy'
p2419
I2282
sS'highest'
p2420
I2101
sS'based'
p2421
I1358
sS'knowledge'
p2422
I1077
sS'('
p2423
I46
sS'should'
p2424
I104
sS'employee'
p2425
I2513
sS'riding'
p2426
I2160
sS'piano'
p2427
I1229
sS'goro'
p2428
I1550
sS'local'
p2429
I986
sS'achieve'
p2430
I1147
sS'regularly'
p2431
I2375
sS'handle'
p2432
I2095
sS'listened'
p2433
I1477
sS'means'
p2434
I399
sS'familiar'
p2435
I1541
sS'coworker'
p2436
I2060
sS'lucky'
p2437
I840
sS'bear'
p2438
I1359
sS'likely'
p2439
I1921
sS'ones'
p2440
I1125
sS'words'
p2441
I281
sS'kong'
p2442
I1562
sS'areas'
p2443
I1856
sS'ended'
p2444
I1255
sS'shy'
p2445
I1824
sS'married'
p2446
I1267
sS'teams'
p2447
I2407
sS'stuff'
p2448
I1087
sS'she'
p2449
I69
sS'wish'
p2450
I390
sS'fixed'
p2451
I2529
sS'view'
p2452
I1350
sS'europe'
p2453
I1899
sS'exists'
p2454
I2519
sS'national'
p2455
I842
sS'taiwanese'
p2456
I2689
sS'we'
p2457
I28
sS'computer'
p2458
I448
sS'terms'
p2459
I1990
sS'closer'
p2460
I2476
sS'interview'
p2461
I1033
sS'reform'
p2462
I2628
sS'nuclear'
p2463
I1123
sS'tend'
p2464
I1423
sS'genius'
p2465
I1652
sS'written'
p2466
I522
sS':'
p2467
I53
sS'closed'
p2468
I1061
sS'horrible'
p2469
I2103
sS'progress'
p2470
I1963
sS'neither'
p2471
I1932
sS'frustrated'
p2472
I2536
sS'email'
p2473
I1300
sS'midnight'
p2474
I1789
sS'bought'
p2475
I309
sS'ability'
p2476
I710
sS'job'
p2477
I150
sS'merry'
p2478
I1481
sS'police'
p2479
I784
sS'precious'
p2480
I1961
sS'drum'
p2481
I1895
sS'career'
p2482
I1519
sS'joke'
p2483
I1663
sS'taking'
p2484
I596
sS'drug'
p2485
I2509
sS'trips'
p2486
I2705
sS'etc'
p2487
I577
sS'admit'
p2488
I1850
sS'passing'
p2489
I1678
sS'journey'
p2490
I1665
sS'comment'
p2491
I1447
sS'gorgeous'
p2492
I1909
sS'co'
p2493
I1062
sS'wall'
p2494
I2723
sS'ca'
p2495
I134
sS'walk'
p2496
I513
sS'laugh'
p2497
I1564
sS'cousin'
p2498
I1739
sS'fukushima'
p2499
I2087
sS'table'
p2500
I1141
sS'quit'
p2501
I1332
sS'addition'
p2502
I649
sS'decent'
p2503
I2495
sS'taste'
p2504
I848
sS'drank'
p2505
I980
sS'treat'
p2506
I1711
sS'ah'
p2507
I1611
sS'kitchen'
p2508
I1387
sS'bbq'
p2509
I2032
sS'>'
p2510
I553
sS'suggested'
p2511
I2185
sS'shoulders'
p2512
I2657
sS'league'
p2513
I2116
sS'painted'
p2514
I2351
sS'am'
p2515
I62
sS'climate'
p2516
I2249
sS'al'
p2517
I2434
sS'hmm'
p2518
I1658
sS'miku'
p2519
I1221
sS'tense'
p2520
I1186
sS'covered'
p2521
I1740
sS'smoking'
p2522
I1041
sS'general'
p2523
I1651
sS'present'
p2524
I668
sS'volunteer'
p2525
I2720
sS'novel'
p2526
I903
sS'unlike'
p2527
I2713
sS'crowds'
p2528
I1637
sS'harder'
p2529
I1073
sS'value'
p2530
I2714
sS'2010'
p2531
I1146
sS'will'
p2532
I42
sS'hahaha'
p2533
I1553
sS'~'
p2534
I160
sS'supply'
p2535
I2682
sS'koreans'
p2536
I2322
sS'almost'
p2537
I313
sS'thus'
p2538
I1238
sS'site'
p2539
I359
sS'surface'
p2540
I1834
sS'helped'
p2541
I985
sS'politics'
p2542
I1958
sS'partner'
p2543
I1174
sS')'
p2544
I35
sS'began'
p2545
I733
sS'views'
p2546
I2716
sS'campus'
p2547
I2040
sS'member'
p2548
I988
sS'strange'
p2549
I807
sS'speaker'
p2550
I1139
sS'party'
p2551
I351
sS'android'
p2552
I1613
sS'gets'
p2553
I983
sS'difficult'
p2554
I190
sS'ball'
p2555
I1436
sS'novels'
p2556
I1395
sS'drink'
p2557
I477
sS'effect'
p2558
I1459
sS'student'
p2559
I269
sS'bakery'
p2560
I2448
sS'frequently'
p2561
I1546
sS'expand'
p2562
I2520
sS'off'
p2563
I312
sS'center'
p2564
I858
sS'sweets'
p2565
I1989
sS'i'
p2566
I2
sS'weapon'
p2567
I2726
sS'contest'
p2568
I2484
sS'well'
p2569
I123
sS'thought'
p2570
I243
sS'english'
p2571
I27
sS'firstly'
p2572
I1759
sS'position'
p2573
I1576
sS'usual'
p2574
I878
sS'stores'
p2575
I1086
sS'cried'
p2576
I2489
sS'less'
p2577
I819
sS'flies'
p2578
I1903
sS'cries'
p2579
I2490
sS'mistakes'
p2580
I547
sS'rooms'
p2581
I1411
sS'seats'
p2582
I1972
sS'skill'
p2583
I520
sS'lettuce'
p2584
I2575
sS'happiness'
p2585
I1161
sS'web'
p2586
I853
sS'bicycles'
p2587
I2457
sS'drunk'
p2588
I1368
sS'sky'
p2589
I964
sS'lake'
p2590
I2323
sS'realize'
p2591
I1408
sS'reasons'
p2592
I702
sS'add'
p2593
I1149
sS'other'
p2594
I102
sS'attractive'
p2595
I1724
sS'wet'
p2596
I1602
sS'usage'
p2597
I2420
sS'tax'
p2598
I2189
sS'smart'
p2599
I1275
sS'tests'
p2600
I1706
sS'government'
p2601
I699
sS'checking'
p2602
I2046
sS'five'
p2603
I505
sS'know'
p2604
I70
sS'desk'
p2605
I1296
sS'immediately'
p2606
I1915
sS'loss'
p2607
I2120
sS'necessary'
p2608
I956
sS'like'
p2609
I39
sS'lost'
p2610
I472
sS'sofa'
p2611
I2392
sS'lose'
p2612
I767
sS'leaves'
p2613
I1119
sS'works'
p2614
I789
sS'soft'
p2615
I2176
sS'page'
p2616
I1571
sS'italian'
p2617
I1774
sS'because'
p2618
I44
sS'smoothly'
p2619
I2391
sS'scared'
p2620
I1177
sS'village'
p2621
I2001
sS'thief'
p2622
I1992
sS'library'
p2623
I838
sS'mosquitoes'
p2624
I2127
sS'hair'
p2625
I425
sS'preposition'
p2626
I2617
sS'warmer'
p2627
I2204
sS'home'
p2628
I166
sS'happens'
p2629
I1466
sS'diaries'
p2630
I1742
sS'lead'
p2631
I2115
sS'literally'
p2632
I2579
sS'avoid'
p2633
I1726
sS'does'
p2634
I209
sS'passion'
p2635
I1802
sS'taiko'
p2636
I2688
sS'leader'
p2637
I2572
sS'?'
p2638
I30
sS'noise'
p2639
I1485
sS'schedule'
p2640
I995
sS'journal'
p2641
I451
sS'host'
p2642
I1030
sS'although'
p2643
I282
sS'described'
p2644
I2270
sS'r'
p2645
I1966
sS'noisy'
p2646
I1795
sS'sister'
p2647
I496
sS'beef'
p2648
I2455
sS'getting'
p2649
I347
sS'universe'
p2650
I1999
sS'basis'
p2651
I2453
sS'recognized'
p2652
I2371
sS'sweat'
p2653
I1704
sS'tongue'
p2654
I1425
sS'introduced'
p2655
I1472
sS'software'
p2656
I966
sS'own'
p2657
I414
sS'letters'
p2658
I1780
sS'keeps'
p2659
I2318
sS'socks'
p2660
I2666
sS'weather'
p2661
I401
sS'promise'
p2662
I2620
sS'brush'
p2663
I2038
sS'female'
p2664
I1901
sS'roads'
p2665
I1583
sS'quickly'
p2666
I723
sS'hehe'
p2667
I2310
sS'whom'
p2668
I1427
sS'vegetables'
p2669
I1713
sS'*'
p2670
I175
sS'noticed'
p2671
I843
sS'overtime'
p2672
I1941
sS'biggest'
p2673
I1620
sS'rode'
p2674
I2380
sS'naturally'
p2675
I2593
sS'buy'
p2676
I268
sS'north'
p2677
I821
sS'stadium'
p2678
I1831
sS'chatting'
p2679
I1247
sS'bus'
p2680
I686
sS'brand'
p2681
I1732
sS'but'
p2682
I20
sS'delivery'
p2683
I2063
sS'reminds'
p2684
I1969
sS'hi'
p2685
I267
sS'goals'
p2686
I1160
sS'ha'
p2687
I1260
sS'eat'
p2688
I306
sS'he'
p2689
I47
sS'count'
p2690
I2058
sS'made'
p2691
I165
sS'places'
p2692
I677
sS'whether'
p2693
I634
sS'dangerous'
p2694
I1105
sS'official'
p2695
I1797
sS'record'
p2696
I1811
sS'below'
p2697
I1008
sS'stories'
p2698
I1000
sS'empty'
p2699
I2280
sS'cake'
p2700
I1872
sS'problem'
p2701
I392
sS'piece'
p2702
I1399
sS'minutes'
p2703
I480
sS'display'
p2704
I2503
sS'contribute'
p2705
I1738
sS'education'
p2706
I1157
sS'happen'
p2707
I924
sS'compared'
p2708
I1014
sS"'ll"
p2709
I128
sS'variety'
p2710
I2202
sS'percent'
p2711
I2606
sS'detail'
p2712
I2066
sS'40'
p2713
I1607
sS'lately'
p2714
I926
sS'book'
p2715
I245
sS'details'
p2716
I1253
sS'sick'
p2717
I999
sS'toefl'
p2718
I1707
sS'haruki'
p2719
I2097
sS'conclusion'
p2720
I1630
sS'album'
p2721
I2219
sS'xxx'
p2722
I2428
sS'kinds'
p2723
I743
sS'monday'
p2724
I820
sS'writting'
p2725
I2010
sS'june'
p2726
I1075
sS'stay'
p2727
I356
sS'chance'
p2728
I574
sS'friends'
p2729
I88
sS'oral'
p2730
I1799
sS'blogs'
p2731
I1868
sS'rule'
p2732
I2382
sS'searched'
p2733
I2648
sS'lives'
p2734
I719
s.