(dp0
S'raining'
p1
I701
sS'four'
p2
I622
sS'sleep'
p3
I298
sS'hate'
p4
I766
sS'relationships'
p5
I1404
sS'whose'
p6
I1025
sS'electricity'
p7
I1127
sS'under'
p8
I786
sS'teaching'
p9
I677
sS'sorry'
p10
I652
sS'worth'
p11
I1300
sS'@'
p12
I1193
sS'every'
p13
I172
sS'jack'
p14
I1682
sS'school'
p15
I84
sS'prize'
p16
I1262
sS'skills'
p17
I382
sS'companies'
p18
I1210
sS'solution'
p19
I1173
sS'math'
p20
I992
sS'clothes'
p21
I543
sS'enjoy'
p22
I301
sS'bicycle'
p23
I888
sS'tired'
p24
I334
sS'japanese'
p25
I62
sS'second'
p26
I287
sS'street'
p27
I656
sS'even'
p28
I125
sS'+'
p29
I1432
sS'cooking'
p30
I801
sS'above'
p31
I792
sS'new'
p32
I79
sS'net'
p33
I1698
sS'ever'
p34
I592
sS'disney'
p35
I1218
sS'told'
p36
I304
sS'hero'
p37
I1059
sS'never'
p38
I185
sS'here'
p39
I110
sS'met'
p40
I378
sS'apartment'
p41
I1443
sS'china'
p42
I738
sS'100'
p43
I950
sS'dry'
p44
I1647
sS'kids'
p45
I1510
sS'daughter'
p46
I512
sS'employees'
p47
I1129
sS'changed'
p48
I573
sS'jogging'
p49
I920
sS'stressed'
p50
I1177
sS'military'
p51
I1695
sS'changes'
p52
I960
sS'golden'
p53
I1351
sS'fantastic'
p54
I1229
sS'feelings'
p55
I904
sS'brought'
p56
I1110
sS'spoke'
p57
I1281
sS'would'
p58
I97
sS'hospital'
p59
I1060
sS'achieve'
p60
I1102
sS'music'
p61
I209
sS'therefore'
p62
I465
sS'recommend'
p63
I749
sS'type'
p64
I1298
sS'tell'
p65
I252
sS'relax'
p66
I1167
sS'successful'
p67
I1746
sS'haha'
p68
I550
sS'hurt'
p69
I984
sS'phone'
p70
I581
sS'warm'
p71
I565
sS'excellent'
p72
I1651
sS'must'
p73
I243
sS'me'
p74
I28
sS'join'
p75
I1062
sS'room'
p76
I297
sS'work'
p77
I99
sS'movies'
p78
I746
sS'mr'
p79
I996
sS'my'
p80
I8
sS'example'
p81
I373
sS'saturday'
p82
I726
sS'give'
p83
I275
sS'foods'
p84
I846
sS'want'
p85
I58
sS'keep'
p86
I258
sS'ceremony'
p87
I1206
sS'end'
p88
I347
sS'turn'
p89
I563
sS'travel'
p90
I785
sS'sitting'
p91
I1736
sS'machine'
p92
I1067
sS'how'
p93
I93
sS'hot'
p94
I374
sS'answer'
p95
I494
sS'pizza'
p96
I1258
sS'beauty'
p97
I1599
sS'earlier'
p98
I1342
sS'customs'
p99
I1631
sS'dinosaurs'
p100
I1476
sS'wrong'
p101
I634
sS'president'
p102
I1722
sS'law'
p103
I987
sS'third'
p104
I880
sS'appreciate'
p105
I833
sS'green'
p106
I808
sS'enter'
p107
I1484
sS'diary'
p108
I176
sS'harlem'
p109
I1671
sS'order'
p110
I555
sS'office'
p111
I388
sS'dreamed'
p112
I1643
sS'over'
p113
I221
sS'satisfied'
p114
I934
sS'london'
p115
I988
sS'japan'
p116
I82
sS'before'
p117
I171
sS'fit'
p118
I1491
sS'somewhere'
p119
I1086
sS'fix'
p120
I1658
sS','
p121
I3
sS'writing'
p122
I179
sS'better'
p123
I235
sS'weeks'
p124
I466
sS'then'
p125
I144
sS'them'
p126
I85
sS'safe'
p127
I1271
sS'break'
p128
I638
sS'band'
p129
I1448
sS'they'
p130
I53
sS'schools'
p131
I751
sS'one'
p132
I66
sS'bank'
p133
I1596
sS'bread'
p134
I1201
sS'grammar'
p135
I765
sS'each'
p136
I180
sS'went'
p137
I87
sS'side'
p138
I938
sS'mean'
p139
I472
sS'series'
p140
I704
sS'taught'
p141
I1291
sS'forgot'
p142
I906
sS'message'
p143
I1068
sS'by'
p144
I64
sS'gon'
p145
I1056
sS'driving'
p146
I1044
sS'god'
p147
I851
sS'cameras'
p148
I1609
sS'content'
p149
I1627
sS'got'
p150
I139
sS'engineer'
p151
I1483
sS'given'
p152
I1664
sS'free'
p153
I394
sS'standard'
p154
I1565
sS'wanted'
p155
I306
sS'ate'
p156
I447
sS'created'
p157
I1214
sS'starts'
p158
I1416
sS'messages'
p159
I1377
sS'days'
p160
I107
sS'corrections'
p161
I1213
sS'arrived'
p162
I886
sS'already'
p163
I355
sS'grade'
p164
I981
sS'wash'
p165
I1428
sS'delicious'
p166
I897
sS'calorie'
p167
I1456
sS'basketball'
p168
I1598
sS'service'
p169
I1083
sS'top'
p170
I1296
sS'girls'
p171
I908
sS'needed'
p172
I927
sS'master'
p173
I1375
sS'too'
p174
I128
sS'blossoms'
p175
I1200
sS'listen'
p176
I413
sS'ceiling'
p177
I1034
sS'gym'
p178
I1141
sS'took'
p179
I260
sS'western'
p180
I1580
sS'prefecture'
p181
I1395
sS'distance'
p182
I1640
sS'anxiety'
p183
I1591
sS'showed'
p184
I1735
sS'tourists'
p185
I1758
sS'project'
p186
I1079
sS'matter'
p187
I580
sS'classes'
p188
I590
sS'speaking'
p189
I389
sS'k'
p190
I1507
sS'feeling'
p191
I547
sS'fashion'
p192
I972
sS'ran'
p193
I1164
sS'boston'
p194
I1453
sS'modern'
p195
I1521
sS'mind'
p196
I473
sS'mine'
p197
I1253
sS'anybody'
p198
I1441
sS'talking'
p199
I426
sS'seen'
p200
I406
sS'seem'
p201
I1082
sS'seminar'
p202
I1553
sS'-'
p203
I18
sS'snow'
p204
I489
sS'toeic'
p205
I531
sS'recommended'
p206
I1264
sS'subjects'
p207
I1289
sS'blue'
p208
I889
sS'nobody'
p209
I1070
sS'though'
p210
I201
sS'regular'
p211
I1165
sS'germany'
p212
I1139
sS'letter'
p213
I1064
sS'singer'
p214
I1559
sS'don'
p215
I1641
sS'medical'
p216
I1518
sS'm'
p217
I485
sS'dog'
p218
I716
sS'definitely'
p219
I1339
sS'deeply'
p220
I1632
sS'came'
p221
I251
sS'saying'
p222
I727
sS'contacted'
p223
I1626
sS'radio'
p224
I1545
sS'enjoyed'
p225
I387
sS'lessons'
p226
I810
sS'busy'
p227
I282
sS'menu'
p228
I1693
sS'explain'
p229
I1052
sS'yen'
p230
I1097
sS'bush'
p231
I1203
sS'rich'
p232
I1730
sS'rice'
p233
I1007
sS'wearing'
p234
I1188
sS'do'
p235
I27
sS'stop'
p236
I655
sS'pocket'
p237
I1715
sS'bar'
p238
I1315
sS'countries'
p239
I315
sS'twice'
p240
I1184
sS'bad'
p241
I196
sS'disaster'
p242
I1478
sS'depends'
p243
I1633
sS'decided'
p244
I321
sS'result'
p245
I817
sS'best'
p246
I223
sS'subject'
p247
I1288
sS'00'
p248
I658
sS'said'
p249
I136
sS'lots'
p250
I643
sS'away'
p251
I686
sS'score'
p252
I1011
sS'warabi'
p253
I1762
sS'hopefully'
p254
I1678
sS'mum'
p255
I925
sS'we'
p256
I26
sS'men'
p257
I719
sS'omg'
p258
I1388
sS'nature'
p259
I998
sS'wo'
p260
I713
sS'weak'
p261
I1299
sS'however'
p262
I155
sS'boss'
p263
I586
sS'wear'
p264
I788
sS'news'
p265
I396
sS'kitchen'
p266
I1149
sS'suggested'
p267
I1748
sS'received'
p268
I816
sS'accident'
p269
I1101
sS'reported'
p270
I1728
sS'country'
p271
I274
sS'ill'
p272
I1504
sS'against'
p273
I636
sS'players'
p274
I1539
sS'games'
p275
I482
sS'faces'
p276
I1346
sS'studio'
p277
I878
sS'com'
p278
I1623
sS'asked'
p279
I338
sS'tough'
p280
I1573
sS'had'
p281
I59
sS'speak'
p282
I194
sS'bathroom'
p283
I1317
sS'three'
p284
I254
sS'been'
p285
I95
sS'.'
p286
I1
sS'beer'
p287
I1450
sS'much'
p288
I104
sS'interest'
p289
I1680
sS'basic'
p290
I1597
sS'expected'
p291
I1224
sS'entered'
p292
I1485
sS'lovely'
p293
I989
sS'website'
p294
I446
sS'life'
p295
I146
sS'families'
p296
I1133
sS'xxx'
p297
I1768
sS'writting'
p298
I1766
sS'child'
p299
I509
sS'catch'
p300
I1032
sS'worked'
p301
I567
sS'air'
p302
I540
sS'near'
p303
I424
sS'suppose'
p304
I1419
sS'teachers'
p305
I825
sS'leaves'
p306
I1513
sS'voice'
p307
I610
sS'study'
p308
I106
sS'mistake'
p309
I1378
sS'seven'
p310
I1734
sS'played'
p311
I443
sS'is'
p312
I9
sS'it'
p313
I10
sS'player'
p314
I867
sS'in'
p315
I11
sS'if'
p316
I56
sS'hong'
p317
I1355
sS'things'
p318
I148
sS'make'
p319
I105
sS'polaroid'
p320
I1392
sS'airport'
p321
I952
sS'complex'
p322
I1118
sS'big'
p323
I267
sS'success'
p324
I1417
sS'several'
p325
I606
sS'rain'
p326
I781
sS'hand'
p327
I449
sS'characters'
p328
I1323
sS'opportunity'
p329
I1154
sS'thoughts'
p330
I1091
sS'kept'
p331
I921
sS'programs'
p332
I1163
sS'contact'
p333
I692
sS'mother'
p334
I343
sS'the'
p335
I5
sS'left'
p336
I403
sS'just'
p337
I91
sS'sentence'
p338
I605
sS'photo'
p339
I1073
sS'laptop'
p340
I1367
sS'sleepy'
p341
I650
sS'thanks'
p342
I358
sS'human'
p343
I916
sS'yes'
p344
I612
sS'yet'
p345
I409
sS'previous'
p346
I1540
sS'cherry'
p347
I1035
sS'thick'
p348
I1755
sS'character'
p349
I892
sS'board'
p350
I1603
sS'easy'
p351
I341
sS'has'
p352
I81
sS'gave'
p353
I524
sS'possible'
p354
I434
sS'unique'
p355
I1760
sS'dreams'
p356
I967
sS'unnecessary'
p357
I1577
sS'steps'
p358
I1567
sS'night'
p359
I213
sS'right'
p360
I234
sS'old'
p361
I200
sS'deal'
p362
I804
sS'people'
p363
I57
sS'somehow'
p364
I1413
sS'born'
p365
I1030
sS'dear'
p366
I1469
sS'for'
p367
I16
sS'bottom'
p368
I1605
sS'comments'
p369
I799
sS'everything'
p370
I400
sS'asking'
p371
I1195
sS'christmas'
p372
I510
sS'translated'
p373
I1424
sS'graduated'
p374
I1233
sS'post'
p375
I868
sS'super'
p376
I1418
sS'months'
p377
I362
sS'o'
p378
I774
sS'dinner'
p379
I480
sS'afternoon'
p380
I736
sS'curry'
p381
I1215
sS'bath'
p382
I687
sS'down'
p383
I296
sS'magazines'
p384
I1250
sS'soy'
p385
I1414
sS'wan'
p386
I633
sS'support'
p387
I1019
sS'tennis'
p388
I732
sS'why'
p389
I149
sS'quiet'
p390
I1723
sS'way'
p391
I129
sS'call'
p392
I479
sS'was'
p393
I14
sS'war'
p394
I946
sS'happy'
p395
I142
sS'head'
p396
I767
sS'form'
p397
I907
sS'offer'
p398
I1529
sS'becoming'
p399
I1029
sS'fireworks'
p400
I974
sS'heat'
p401
I853
sS'hear'
p402
I526
sS'true'
p403
I492
sS'inside'
p404
I1145
sS'until'
p405
I336
sS'economic'
p406
I1046
sS'later'
p407
I484
sS'stronger'
p408
I1745
sS'drive'
p409
I1481
sS'sometime'
p410
I1737
sS'annoying'
p411
I1589
sS'check'
p412
I521
sS'physical'
p413
I1710
sS'floor'
p414
I975
sS'colder'
p415
I1622
sS'na'
p416
I442
sS'when'
p417
I51
sS'reality'
p418
I1263
sS'ny'
p419
I1000
sS'interested'
p420
I483
sS'digital'
p421
I1124
sS'test'
p422
I288
sS'picture'
p423
I556
sS"'s"
p424
I24
sS'felt'
p425
I226
sS'fell'
p426
I806
sS"'m"
p427
I34
sS'weekend'
p428
I476
sS'younger'
p429
I830
sS'faster'
p430
I1135
sS'glass'
p431
I1665
sS'daily'
p432
I964
sS'vietnam'
p433
I944
sS'time'
p434
I43
sS'serious'
p435
I937
sS'songs'
p436
I583
sS'dance'
p437
I840
sS'focus'
p438
I1493
sS'/'
p439
I152
sS'skin'
p440
I1277
sS'certainly'
p441
I1615
sS'april'
p442
I1105
sS'father'
p443
I401
sS'passage'
p444
I1537
sS'environment'
p445
I1130
sS'answered'
p446
I1590
sS'finally'
p447
I412
sS'suffered'
p448
I1747
sS'division'
p449
I1125
sS'advantage'
p450
I1585
sS'choice'
p451
I1326
sS'entries'
p452
I1051
sS'cook'
p453
I894
sS'word'
p454
I518
sS'trouble'
p455
I1022
sS'minute'
p456
I1520
sS'cool'
p457
I662
sS'level'
p458
I626
sS'did'
p459
I86
sS'die'
p460
I1475
sS'philippines'
p461
I1709
sS'brother'
p462
I588
sS'cloudy'
p463
I1459
sS'leave'
p464
I451
sS'p'
p465
I775
sS'team'
p466
I454
sS'guy'
p467
I499
sS'talked'
p468
I530
sS'says'
p469
I703
sS'regret'
p470
I1403
sS'cost'
p471
I802
sS'run'
p472
I425
sS'current'
p473
I963
sS'goes'
p474
I743
sS'international'
p475
I919
sS'falling'
p476
I1652
sS'digitalization'
p477
I1637
sS'french'
p478
I666
sS'okinawa'
p479
I1387
sS'water'
p480
I408
sS'baseball'
p481
I1108
sS'groups'
p482
I1668
sS'kilometers'
p483
I1246
sS'alone'
p484
I795
sS'['
p485
I508
sS'teacher'
p486
I168
sS'change'
p487
I448
sS'wait'
p488
I533
sS'boy'
p489
I587
sS'healthy'
p490
I1673
sS'studied'
p491
I453
sS'exams'
p492
I805
sS'bon'
p493
I1604
sS'usually'
p494
I398
sS'studies'
p495
I1017
sS'love'
p496
I159
sS'extra'
p497
I1345
sS'prefer'
p498
I1076
sS'1st'
p499
I1305
sS'market'
p500
I1251
sS'everybody'
p501
I593
sS'working'
p502
I277
sS'positive'
p503
I1718
sS'angry'
p504
I757
sS'visit'
p505
I436
sS'tears'
p506
I1089
sS'france'
p507
I1348
sS'msn'
p508
I1523
sS'live'
p509
I183
sS'iphone'
p510
I1241
sS'wondering'
p511
I791
sS'memory'
p512
I1252
sS'films'
p513
I973
sS'today'
p514
I49
sS'``'
p515
I20
sS'club'
p516
I495
sS'everywhere'
p517
I1649
sS'cases'
p518
I1614
sS'effort'
p519
I900
sS'tokyo'
p520
I289
sS'car'
p521
I340
sS'soul'
p522
I1739
sS'cat'
p523
I439
sS'can'
p524
I44
sS'following'
p525
I1230
sS'making'
p526
I369
sS'hiroshima'
p527
I1676
sS'heart'
p528
I597
sS'crazy'
p529
I839
sS'december'
p530
I1470
sS'awesome'
p531
I1594
sS'confused'
p532
I1039
sS'topic'
p533
I1092
sS'heard'
p534
I367
sS'stroke'
p535
I1744
sS'clothing'
p536
I1621
sS'winter'
p537
I584
sS'fortunately'
p538
I764
sS'watching'
p539
I359
sS'1'
p540
I266
sS'till'
p541
I1182
sS'sunday'
p542
I608
sS'economy'
p543
I741
sS'staying'
p544
I1087
sS'huge'
p545
I1238
sS'may'
p546
I237
sS'birthday'
p547
I469
sS'sns'
p548
I1412
sS'date'
p549
I896
sS'such'
p550
I215
sS'guys'
p551
I576
sS'grow'
p552
I1234
sS'man'
p553
I285
sS'stress'
p554
I1088
sS'natural'
p555
I528
sS'remember'
p556
I506
sS'whenever'
p557
I734
sS'maybe'
p558
I310
sS'so'
p559
I21
sS'manga'
p560
I924
sS'talk'
p561
I218
sS'cute'
p562
I544
sS'shoes'
p563
I1274
sS'years'
p564
I141
sS'course'
p565
I332
sS'cold'
p566
I257
sS'still'
p567
I178
sS'birds'
p568
I1602
sS'group'
p569
I548
sS'thank'
p570
I202
sS'interesting'
p571
I245
sS'amazing'
p572
I1104
sS'window'
p573
I1094
sS'policy'
p574
I1716
sS'mail'
p575
I527
sS'main'
p576
I644
sS'happened'
p577
I450
sS'non'
p578
I1700
sS'lonely'
p579
I1248
sS'conversations'
p580
I1464
sS'introduce'
p581
I623
sS'lunch'
p582
I415
sS'half'
p583
I500
sS'not'
p584
I35
sS'now'
p585
I73
sS'killed'
p586
I1148
sS'term'
p587
I1179
sS'name'
p588
I230
sS'january'
p589
I855
sS'turtle'
p590
I1759
sS'yeah'
p591
I1769
sS'ex'
p592
I1131
sS'year'
p593
I120
sS'girl'
p594
I422
sS'morning'
p595
I212
sS'tried'
p596
I335
sS'canada'
p597
I1031
sS'living'
p598
I433
sS'space'
p599
I1415
sS'miyazaki'
p600
I645
sS'looking'
p601
I242
sS'seriously'
p602
I1409
sS'internet'
p603
I599
sS'correct'
p604
I203
sS'shows'
p605
I1410
sS'after'
p606
I88
sS'state'
p607
I1176
sS'quite'
p608
I558
sS'besides'
p609
I956
sS'grandma'
p610
I1667
sS'card'
p611
I1111
sS'care'
p612
I456
sS'advance'
p613
I1437
sS'training'
p614
I942
sS'language'
p615
I224
sS'british'
p616
I1320
sS'honest'
p617
I1677
sS'thing'
p618
I253
sS'place'
p619
I238
sS'think'
p620
I60
sS'first'
p621
I75
sS'cheese'
p622
I1325
sS'xd'
p623
I1190
sS'yourself'
p624
I1098
sS'long'
p625
I124
sS'directly'
p626
I1477
sS'spanish'
p627
I875
sS'carry'
p628
I1613
sS'impossible'
p629
I1239
sS'sounds'
p630
I562
sS'fight'
p631
I1656
sS'open'
p632
I814
sS'tomorrow'
p633
I206
sS'size'
p634
I1276
sS'city'
p635
I330
sS'little'
p636
I135
sS'checked'
p637
I1324
sS'caught'
p638
I1322
sS'slept'
p639
I676
sS'anyone'
p640
I758
sS'2'
p641
I214
sS'white'
p642
I789
sS'friend'
p643
I127
sS'gives'
p644
I1140
sS'eyes'
p645
I640
sS'that'
p646
I15
sS'season'
p647
I487
sS'released'
p648
I1727
sS'thai'
p649
I1571
sS'flowers'
p650
I1659
sS'than'
p651
I117
sS'boyfriend'
p652
I659
sS'11'
p653
I1191
sS'10'
p654
I493
sS'12'
p655
I1303
sS'15'
p656
I1100
sS'unfortunately'
p657
I733
sS'16'
p658
I1304
sS'depressed'
p659
I1340
sS'18'
p660
I1581
sS'future'
p661
I313
sS'were'
p662
I92
sS'college'
p663
I331
sS'and'
p664
I7
sS'turned'
p665
I1183
sS'sad'
p666
I463
sS'say'
p667
I147
sS'rent'
p668
I1268
sS'breakfast'
p669
I1202
sS'saw'
p670
I333
sS'any'
p671
I163
sS'marathon'
p672
I1515
sS'sat'
p673
I1407
sS'speakers'
p674
I653
sS'ideas'
p675
I1061
sS'shocked'
p676
I1084
sS'note'
p677
I1526
sS'animation'
p678
I571
sS'take'
p679
I132
sS'online'
p680
I747
sS'relaxed'
p681
I1726
sS'surf'
p682
I1749
sS'begin'
p683
I1109
sS'sure'
p684
I435
sS'pain'
p685
I1155
sS'normal'
p686
I1256
sS'price'
p687
I674
sS'knew'
p688
I745
sS'paid'
p689
I1532
sS'america'
p690
I637
sS']'
p691
I477
sS'forever'
p692
I1496
sS'especially'
p693
I366
sS'average'
p694
I1447
sS'proud'
p695
I1080
sS'hungry'
p696
I854
sS'senior'
p697
I1554
sS'shop'
p698
I488
sS'walking'
p699
I945
sS'show'
p700
I350
sS'german'
p701
I1055
sS'discovered'
p702
I1638
sS'bright'
p703
I1606
sS'corner'
p704
I1628
sS'ground'
p705
I1352
sS'slow'
p706
I1411
sS'title'
p707
I755
sS'3'
p708
I210
sS'only'
p709
I119
sS'going'
p710
I103
sS'black'
p711
I957
sS'get'
p712
I94
sS'assistant'
p713
I1446
sS'nearly'
p714
I1382
sS'celebrate'
p715
I1113
sS'dramas'
p716
I1642
sS'worried'
p717
I679
sS'stupid'
p718
I1287
sS'pants'
p719
I1533
sS'where'
p720
I290
sS'husband'
p721
I598
sS'concert'
p722
I1211
sS'asleep'
p723
I1196
sS'wonder'
p724
I535
sS'ways'
p725
I883
sS'review'
p726
I1549
sS'sites'
p727
I1561
sS'forecast'
p728
I1495
sS'behind'
p729
I1318
sS'between'
p730
I411
sS'reading'
p731
I154
sS'notice'
p732
I928
sS'jobs'
p733
I624
sS'august'
p734
I954
sS'screen'
p735
I1552
sS'guitar'
p736
I667
sS'concentrate'
p737
I1462
sS'article'
p738
I520
sS'come'
p739
I211
sS'many'
p740
I80
sS'region'
p741
I750
sS'according'
p742
I635
sS's'
p743
I370
sS'expression'
p744
I1227
sS'comes'
p745
I616
sS'among'
p746
I953
sS'cancer'
p747
I1457
sS'period'
p748
I815
sS'pop'
p749
I1074
sS'learning'
p750
I204
sS'moreover'
p751
I995
sS'arts'
p752
I1593
sS'vacation'
p753
I428
sS'mark'
p754
I1691
sS'hardly'
p755
I913
sS'wants'
p756
I828
sS'shopping'
p757
I648
sS'offered'
p758
I1704
sS'photos'
p759
I1391
sS'wake'
p760
I1427
sS'instant'
p761
I1505
sS'careful'
p762
I1205
sS'former'
p763
I976
sS'those'
p764
I344
sS'^'
p765
I114
sS'case'
p766
I589
sS'myself'
p767
I173
sS'these'
p768
I177
sS"n't"
p769
I23
sS'newspaper'
p770
I1255
sS'situation'
p771
I407
sS'coffee'
p772
I893
sS'sleeping'
p773
I818
sS'middle'
p774
I720
sS'good'
p775
I54
sS'somebody'
p776
I1280
sS'technology'
p777
I1090
sS'everyday'
p778
I342
sS'worry'
p779
I1429
sS'different'
p780
I247
sS'develop'
p781
I1635
sS'author'
p782
I1106
sS'pay'
p783
I866
sS'same'
p784
I225
sS'trip'
p785
I320
sS'speech'
p786
I1175
sS'week'
p787
I250
sS'finish'
p788
I481
sS'singapore'
p789
I706
sS'driver'
p790
I1645
sS'running'
p791
I725
sS'changing'
p792
I1458
sS'totally'
p793
I1757
sS'no'
p794
I140
sS'without'
p795
I299
sS'solve'
p796
I1563
sS'trains'
p797
I1574
sS'summer'
p798
I239
sS'being'
p799
I372
sS'money'
p800
I318
sS'rest'
p801
I702
sS'kill'
p802
I1363
sS'speed'
p803
I939
sS'death'
p804
I1216
sS'thinking'
p805
I384
sS'seems'
p806
I381
sS'except'
p807
I902
sS'blog'
p808
I688
sS'4'
p809
I351
sS'real'
p810
I505
sS'around'
p811
I256
sS'read'
p812
I166
sS'early'
p813
I522
sS'mom'
p814
I513
sS'using'
p815
I305
sS'cd'
p816
I1112
sS'correcting'
p817
I1335
sS"'ve"
p818
I130
sS't'
p819
I364
sS'pronounce'
p820
I1543
sS'competition'
p821
I1461
sS'memories'
p822
I1692
sS'recorded'
p823
I1724
sS'moon'
p824
I1069
sS'23rd'
p825
I1582
sS'recorder'
p826
I1546
sS'knife'
p827
I923
sS'football'
p828
I1494
sS'power'
p829
I724
sS'kyoto'
p830
I856
sS'communicate'
p831
I661
sS'broken'
p832
I958
sS'thailand'
p833
I1572
sS'exciting'
p834
I843
sS'_'
p835
I174
sS'on'
p836
I32
sS'ok'
p837
I602
sS'oh'
p838
I529
sS'island'
p839
I1242
sS'favorite'
p840
I316
sS'practical'
p841
I1260
sS"'d"
p842
I345
sS'stand'
p843
I1743
sS'act'
p844
I1310
sS'luck'
p845
I990
sS'or'
p846
I74
sS'road'
p847
I1269
sS'communication'
p848
I838
sS'elementary'
p849
I1047
sS'nowadays'
p850
I1701
sS'your'
p851
I122
sS'coluche'
p852
I1460
sS'prepare'
p853
I1077
sS'area'
p854
I685
sS'there'
p855
I50
sS'hey'
p856
I1236
sS'lol'
p857
I699
sS'start'
p858
I319
sS'cats'
p859
I1033
sS'low'
p860
I1373
sS'lot'
p861
I113
sS'worst'
p862
I1096
sS'fish'
p863
I1137
sS'ago'
p864
I240
sS'enough'
p865
I322
sS'trying'
p866
I632
sS'with'
p867
I31
sS'buying'
p868
I1204
sS'goro'
p869
I980
sS'october'
p870
I1528
sS'comics'
p871
I1329
sS'agree'
p872
I885
sS'gone'
p873
I1057
sS'taste'
p874
I1178
sS'certain'
p875
I1115
sS'accents'
p876
I1309
sS'moved'
p877
I862
sS'an'
p878
I69
sS'as'
p879
I48
sS'at'
p880
I36
sS'hobbies'
p881
I1354
sS'girlfriend'
p882
I979
sS'watched'
p883
I437
sS'film'
p884
I620
sS'fill'
p885
I1657
sS'again'
p886
I187
sS'bored'
p887
I1319
sS'graduate'
p888
I910
sS'field'
p889
I1490
sS'5'
p890
I386
sS'you'
p891
I22
sS'poor'
p892
I416
sS'vocabulary'
p893
I1186
sS'students'
p894
I205
sS'important'
p895
I271
sS'stocks'
p896
I1283
sS'pool'
p897
I1393
sS'building'
p898
I1607
sS'difficulties'
p899
I1636
sS'wife'
p900
I438
sS'miku'
p901
I811
sS'hello'
p902
I248
sS'u'
p903
I756
sS'starting'
p904
I707
sS'original'
p905
I1071
sS'all'
p906
I78
sS'forget'
p907
I807
sS'chinese'
p908
I329
sS'month'
p909
I311
sS'commute'
p910
I1624
sS'follow'
p911
I1053
sS'expressions'
p912
I1344
sS'children'
p913
I365
sS'calligraphy'
p914
I1321
sS'hunting'
p915
I1357
sS'tv'
p916
I312
sS'thursday'
p917
I1294
sS'spirit'
p918
I1742
sS'to'
p919
I4
sS'program'
p920
I647
sS'dairy'
p921
I1467
sS'health'
p922
I1235
sS'enjoying'
p923
I1049
sS'presentation'
p924
I1721
sS'activities'
p925
I1311
sS'woman'
p926
I534
sS'worse'
p927
I680
sS'song'
p928
I561
sS'very'
p929
I38
sS'fan'
p930
I1134
sS'decide'
p931
I1122
sS'fall'
p932
I619
sS'difference'
p933
I898
sS'condition'
p934
I1333
sS'`'
p935
I455
sS'washing'
p936
I882
sS'joined'
p937
I744
sS'large'
p938
I1368
sS'small'
p939
I357
sS'population'
p940
I1717
sS'ten'
p941
I1020
sS'tea'
p942
I879
sS'streets'
p943
I1286
sS'understanding'
p944
I1576
sS'past'
p945
I503
sS'design'
p946
I1473
sS'pass'
p947
I603
sS'further'
p948
I1661
sS'what'
p949
I55
sS'clock'
p950
I1208
sS'sun'
p951
I1290
sS'learned'
p952
I698
sS'public'
p953
I779
sS'full'
p954
I574
sS'hours'
p955
I314
sS'strong'
p956
I490
sS'search'
p957
I1408
sS'bible'
p958
I1451
sS'difficulty'
p959
I1217
sS'experience'
p960
I421
sS'amount'
p961
I1312
sS'social'
p962
I1085
sS'family'
p963
I269
sS'suddenly'
p964
I731
sS'put'
p965
I452
sS'semester'
p966
I935
sS'takes'
p967
I784
sS'two'
p968
I121
sS'6'
p969
I538
sS'taken'
p970
I754
sS'more'
p971
I72
sS'door'
p972
I966
sS'knows'
p973
I1365
sS'company'
p974
I273
sS'corrected'
p975
I1119
sS'broke'
p976
I836
sS'particular'
p977
I1536
sS'known'
p978
I625
sS'karaoke'
p979
I1508
sS'glad'
p980
I575
sS'town'
p981
I532
sS'keeping'
p982
I1684
sS'hour'
p983
I768
sS'science'
p984
I1010
sS'paragraph'
p985
I1534
sS'learn'
p986
I158
sS'male'
p987
I1690
sS'history'
p988
I457
sS'beautiful'
p989
I328
sS'compare'
p990
I1332
sS'challenging'
p991
I959
sS'share'
p992
I1556
sS'accept'
p993
I1435
sS'autumn'
p994
I887
sS'numbers'
p995
I1702
sS'sense'
p996
I873
sS'dress'
p997
I1644
sS'!'
p998
I13
sS'information'
p999
I669
sS'needs'
p1000
I773
sS'goal'
p1001
I849
sS'awkward'
p1002
I1595
sS'rather'
p1003
I1004
sS'stayed'
p1004
I753
sS'plant'
p1005
I1003
sS'okay'
p1006
I1386
sS'plans'
p1007
I582
sS'advice'
p1008
I794
sS'plane'
p1009
I1712
sS'blood'
p1010
I1199
sS'coming'
p1011
I377
sS'a'
p1012
I6
sS'short'
p1013
I560
sS'dream'
p1014
I496
sS'playing'
p1015
I462
sS'help'
p1016
I150
sS'september'
p1017
I936
sS'soon'
p1018
I281
sS'held'
p1019
I668
sS'paper'
p1020
I1157
sS'through'
p1021
I295
sS'hell'
p1022
I1674
sS'its'
p1023
I323
sS'24'
p1024
I1306
sS'25'
p1025
I1192
sS'style'
p1026
I709
sS'20'
p1027
I682
sS'21'
p1028
I1434
sS'pray'
p1029
I1720
sS'actually'
p1030
I246
sS'late'
p1031
I501
sS'parts'
p1032
I1707
sS'attended'
p1033
I1313
sS'soccer'
p1034
I651
sS'might'
p1035
I259
sS'evening'
p1036
I763
sS'return'
p1037
I1168
sS'calm'
p1038
I1608
sS'food'
p1039
I263
sS'easily'
p1040
I546
sS'always'
p1041
I138
sS'someone'
p1042
I325
sS'stopped'
p1043
I822
sS'found'
p1044
I189
sS'heavy'
p1045
I695
sS'everyone'
p1046
I244
sS'england'
p1047
I1648
sS'another'
p1048
I327
sS'weight'
p1049
I1024
sS'house'
p1050
I193
sS'energy'
p1051
I523
sS'hard'
p1052
I164
sS'reduce'
p1053
I1266
sS'idea'
p1054
I432
sS'oil'
p1055
I1705
sS'expect'
p1056
I971
sS'event'
p1057
I665
sS'really'
p1058
I77
sS'item'
p1059
I1681
sS'since'
p1060
I153
sS'research'
p1061
I1006
sS'participants'
p1062
I1535
sS'safety'
p1063
I1008
sS'7'
p1064
I539
sS'issue'
p1065
I1506
sS'bye'
p1066
I690
sS'friday'
p1067
I694
sS'guess'
p1068
I549
sS'pleasant'
p1069
I1713
sS'houses'
p1070
I1356
sS'reason'
p1071
I286
sS'members'
p1072
I994
sS'ask'
p1073
I541
sS'teach'
p1074
I475
sS'beginning'
p1075
I955
sS'terrible'
p1076
I1180
sS'american'
p1077
I418
sS'major'
p1078
I860
sS'feel'
p1079
I115
sS'number'
p1080
I812
sS'welcome'
p1081
I1763
sS'traveled'
p1082
I1425
sS'feet'
p1083
I1136
sS'done'
p1084
I899
sS'miss'
p1085
I628
sS'story'
p1086
I326
sS'temperature'
p1087
I826
sS'introduction'
p1088
I1147
sS'together'
p1089
I427
sS'5th'
p1090
I1307
sS'least'
p1091
I552
sS'station'
p1092
I607
sS'passed'
p1093
I461
sS'store'
p1094
I877
sS'headache'
p1095
I1672
sS'muscles'
p1096
I1381
sS'relationship'
p1097
I1166
sS'relieved'
p1098
I1547
sS'hotel'
p1099
I697
sS'park'
p1100
I722
sS'part'
p1101
I276
sS'typhoon'
p1102
I881
sS'believe'
p1103
I300
sS'kind'
p1104
I293
sS'b'
p1105
I737
sS'gotten'
p1106
I1500
sS'youth'
p1107
I1301
sS'nevertheless'
p1108
I1383
sS'marriage'
p1109
I1516
sS'supposed'
p1110
I1420
sS'motivation'
p1111
I1522
sS'pedometer'
p1112
I1257
sS'sentences'
p1113
I371
sS'aged'
p1114
I1586
sS'sell'
p1115
I1013
sS'lie'
p1116
I1151
sS'dancing'
p1117
I1338
sS'self'
p1118
I782
sS'also'
p1119
I108
sS'costs'
p1120
I1629
sS'play'
p1121
I261
sS'experienced'
p1122
I1225
sS'electric'
p1123
I1222
sS'most'
p1124
I151
sS'experiences'
p1125
I1226
sS'plan'
p1126
I356
sS'70'
p1127
I1583
sS'nothing'
p1128
I397
sS'refrigerator'
p1129
I1401
sS'mobile'
p1130
I1696
sS'clear'
p1131
I1619
sS'sometimes'
p1132
I222
sS'traditional'
p1133
I710
sS'clean'
p1134
I798
sS'yokohama'
p1135
I1430
sS'ghibli'
p1136
I978
sS'humid'
p1137
I1679
sS'carefully'
p1138
I1612
sS'fine'
p1139
I621
sS'find'
p1140
I208
sS'access'
p1141
I1584
sS'nervous'
p1142
I864
sS'failed'
p1143
I1132
sS'pretty'
p1144
I869
sS'8'
p1145
I175
sS'discuss'
p1146
I1479
sS'his'
p1147
I100
sS'hit'
p1148
I1143
sS'express'
p1149
I903
sS'sunny'
p1150
I940
sS'trees'
p1151
I943
sS'cheaper'
p1152
I1617
sS'famous'
p1153
I431
sS'courage'
p1154
I1630
sS'preparing'
p1155
I1396
sS'reply'
p1156
I1405
sS'during'
p1157
I279
sS'him'
p1158
I116
sS'cry'
p1159
I1120
sS'common'
p1160
I800
sS'x'
p1161
I1767
sS'river'
p1162
I1169
sS'wrote'
p1163
I536
sS'restaurants'
p1164
I1406
sS'bars'
p1165
I1316
sS'set'
p1166
I783
sS'art'
p1167
I834
sS'culture'
p1168
I664
sS'see'
p1169
I134
sS'are'
p1170
I33
sS'sea'
p1171
I1012
sS'close'
p1172
I660
sS'#'
p1173
I1431
sS'visiting'
p1174
I1761
sS'pictures'
p1175
I604
sS'please'
p1176
I156
sS'won'
p1177
I790
sS'various'
p1178
I711
sS'probably'
p1179
I557
sS'knowing'
p1180
I1511
sS'korea'
p1181
I368
sS'recently'
p1182
I280
sS'osaka'
p1183
I1389
sS'sold'
p1184
I1279
sS'attention'
p1185
I1027
sS'fluently'
p1186
I905
sS'both'
p1187
I470
sS'c'
p1188
I759
sS'last'
p1189
I123
sS'restaurant'
p1190
I474
sS'foreign'
p1191
I308
sS'sensitive'
p1192
I1555
sS'became'
p1193
I572
sS'whole'
p1194
I517
sS'liked'
p1195
I859
sS'point'
p1196
I777
sS'reasons'
p1197
I675
sS'sweet'
p1198
I1751
sS'community'
p1199
I1331
sS'likes'
p1200
I1065
sS'church'
p1201
I1036
sS'along'
p1202
I832
sS'expensive'
p1203
I717
sS'create'
p1204
I1336
sS'due'
p1205
I1045
sS'earthquake'
p1206
I440
sS'pc'
p1207
I776
sS'meeting'
p1208
I486
sS'woke'
p1209
I949
sS'pm'
p1210
I723
sS'lived'
p1211
I718
sS'flight'
p1212
I1138
sS'fire'
p1213
I1347
sS'else'
p1214
I1048
sS'whatever'
p1215
I1764
sS'understand'
p1216
I190
sS'prices'
p1217
I1541
sS'plants'
p1218
I1259
sS'look'
p1219
I502
sS'while'
p1220
I198
sS'match'
p1221
I1376
sS'behavior'
p1222
I1601
sS'fun'
p1223
I317
sS'itself'
p1224
I1362
sS'skype'
p1225
I649
sS'funny'
p1226
I498
sS'italy'
p1227
I1243
sS'shirt'
p1228
I1557
sS'anymore'
p1229
I1442
sS'9'
p1230
I569
sS'higher'
p1231
I1237
sS'development'
p1232
I1040
sS'used'
p1233
I236
sS'classmates'
p1234
I1037
sS'mountain'
p1235
I1380
sS'yesterday'
p1236
I137
sS'holidays'
p1237
I1144
sS'moment'
p1238
I629
sS'moving'
p1239
I1254
sS'purpose'
p1240
I1398
sS'recent'
p1241
I1005
sS'dark'
p1242
I1468
sS'lower'
p1243
I1249
sS'older'
p1244
I813
sS'spent'
p1245
I876
sS'analysis'
p1246
I1439
sS'obviously'
p1247
I1703
sS'person'
p1248
I264
sS'entry'
p1249
I392
sS'spend'
p1250
I516
sS'listening'
p1251
I414
sS'sound'
p1252
I752
sS'questions'
p1253
I780
sS'world'
p1254
I207
sS'useful'
p1255
I1023
sS'taiwan'
p1256
I1752
sS'cut'
p1257
I803
sS'$'
p1258
I1099
sS'cup'
p1259
I762
sS'disappointed'
p1260
I1041
sS'workers'
p1261
I1095
sS'parents'
p1262
I349
sS'excited'
p1263
I639
sS'surprised'
p1264
I507
sS'customers'
p1265
I1337
sS'australia'
p1266
I1028
sS'march'
p1267
I991
sS'dvds'
p1268
I841
sS'couple'
p1269
I663
sS'game'
p1270
I309
sS'foreigners'
p1271
I847
sS'bit'
p1272
I346
sS'helpful'
p1273
I1675
sS'd'
p1274
I511
sS'continue'
p1275
I591
sS'popular'
p1276
I672
sS'essential'
p1277
I1486
sS'google'
p1278
I909
sS'often'
p1279
I249
sS'spring'
p1280
I444
sS'some'
p1281
I71
sS'back'
p1282
I165
sS'towards'
p1283
I1297
sS'examples'
p1284
I1650
sS'ourselves'
p1285
I1531
sS'gradually'
p1286
I1666
sS'decision'
p1287
I1123
sS'per'
p1288
I1072
sS'pen'
p1289
I1708
sS'either'
p1290
I1221
sS'be'
p1291
I40
sS'eating'
p1292
I617
sS'remembered'
p1293
I1081
sS'confidence'
p1294
I1334
sS'step'
p1295
I821
sS'santa'
p1296
I1733
sS'abroad'
p1297
I519
sS'anything'
p1298
I337
sS'graduation'
p1299
I982
sS'drama'
p1300
I1219
sS'seeing'
p1301
I871
sS'plenty'
p1302
I1714
sS'hometown'
p1303
I915
sS'into'
p1304
I216
sS'lesson'
p1305
I404
sS'sports'
p1306
I1282
sS'impressed'
p1307
I985
sS'spending'
p1308
I1741
sS'question'
p1309
I504
sS'fast'
p1310
I742
sS'pronunciation'
p1311
I932
sS'doubt'
p1312
I1480
sS'forward'
p1313
I352
sS'translate'
p1314
I1021
sS'scared'
p1315
I1551
sS'himself'
p1316
I1142
sS'registered'
p1317
I1402
sS'boys'
p1318
I1454
sS'russian'
p1319
I870
sS'line'
p1320
I1687
sS'junior'
p1321
I809
sS'up'
p1322
I96
sS'us'
p1323
I161
sS"'re"
p1324
I568
sS'fried'
p1325
I1660
sS'similar'
p1326
I1170
sS'called'
p1327
I262
sS'metal'
p1328
I1694
sS'chan'
p1329
I1616
sS'entrance'
p1330
I1050
sS'single'
p1331
I1171
sS'cafe'
p1332
I797
sS'rainy'
p1333
I559
sS'%'
p1334
I1302
sS'afford'
p1335
I1438
sS'points'
p1336
I778
sS'nice'
p1337
I188
sS'draw'
p1338
I1043
sS'favourite'
p1339
I1653
sS'problems'
p1340
I646
sS'prepared'
p1341
I1078
sS'meaning'
p1342
I861
sS'meals'
p1343
I1517
sS'lang'
p1344
I229
sS'e'
p1345
I420
sS'dvd'
p1346
I1126
sS'age'
p1347
I468
sS'walked'
p1348
I1187
sS'cooked'
p1349
I1465
sS'far'
p1350
I393
sS'fresh'
p1351
I1231
sS'2008'
p1352
I1433
sS'2009'
p1353
I831
sS'requires'
p1354
I1729
sS'having'
p1355
I402
sS'once'
p1356
I363
sS'enjoyable'
p1357
I1223
sS'go'
p1358
I68
sS'barbecue'
p1359
I1449
sS'seemed'
p1360
I515
sS'concerned'
p1361
I1038
sS'young'
p1362
I410
sS'send'
p1363
I872
sS'nose'
p1364
I1385
sS'languages'
p1365
I423
sS'helps'
p1366
I551
sS'friendly'
p1367
I1349
sS'sent'
p1368
I874
sS'garden'
p1369
I848
sS'outside'
p1370
I630
sS'kitty'
p1371
I1364
sS'practicing'
p1372
I1719
sS'drinking'
p1373
I693
sS'fukuoka'
p1374
I1054
sS'magic'
p1375
I1514
sS'try'
p1376
I186
sS'race'
p1377
I933
sS'ride'
p1378
I1731
sS'someday'
p1379
I730
sS'video'
p1380
I678
sS'spaghetti'
p1381
I1564
sS'depression'
p1382
I1472
sS'business'
p1383
I391
sS'cell'
p1384
I1114
sS'waiting'
p1385
I712
sS'indian'
p1386
I918
sS'capital'
p1387
I1610
sS';'
p1388
I195
sS'exercise'
p1389
I1343
sS'body'
p1390
I615
sS'degree'
p1391
I1471
sS'exchange'
p1392
I970
sS'growing'
p1393
I1669
sS'let'
p1394
I302
sS'others'
p1395
I303
sS'sing'
p1396
I1015
sS'great'
p1397
I233
sS'talent'
p1398
I1753
sS'technical'
p1399
I1754
sS'30'
p1400
I537
sS'leaving'
p1401
I1063
sS'products'
p1402
I1162
sS'opinion'
p1403
I554
sS'makes'
p1404
I460
sS'named'
p1405
I997
sS'apple'
p1406
I1592
sS'win'
p1407
I948
sS'manage'
p1408
I1374
sS'private'
p1409
I1261
sS'names'
p1410
I1525
sS'singing'
p1411
I1275
sS'standing'
p1412
I1016
sS'use'
p1413
I191
sS'from'
p1414
I52
sS'usa'
p1415
I1093
sS'&'
p1416
I585
sS'physics'
p1417
I1711
sS'next'
p1418
I162
sS'few'
p1419
I227
sS'camera'
p1420
I691
sS'examination'
p1421
I842
sS'themselves'
p1422
I1422
sS'sort'
p1423
I1738
sS'started'
p1424
I231
sS'becomes'
p1425
I1600
sS'about'
p1426
I41
sS'train'
p1427
I390
sS'ashamed'
p1428
I1445
sS'baby'
p1429
I614
sS'women'
p1430
I1189
sS'account'
p1431
I884
sS'animals'
p1432
I1440
sS'f'
p1433
I1228
sS'this'
p1434
I25
sS'challenge'
p1435
I891
sS'sounded'
p1436
I1740
sS'of'
p1437
I12
sS'meet'
p1438
I220
sS'control'
p1439
I761
sS'eiken'
p1440
I1482
sS'process'
p1441
I1542
sS'discussed'
p1442
I1639
sS'halloween'
p1443
I983
sS'high'
p1444
I192
sS'something'
p1445
I181
sS'wonderful'
p1446
I611
sS'native'
p1447
I395
sS'sit'
p1448
I1560
sS'six'
p1449
I728
sS'located'
p1450
I1372
sS'animal'
p1451
I1588
sS'instead'
p1452
I641
sS'attend'
p1453
I1198
sS'farm'
p1454
I1489
sS'watch'
p1455
I385
sS'realized'
p1456
I514
sS'light'
p1457
I1152
sS'robot'
p1458
I1550
sS'honestly'
p1459
I1502
sS'swimming'
p1460
I824
sS'move'
p1461
I601
sS'including'
p1462
I917
sS'looks'
p1463
I600
sS'mentioned'
p1464
I1519
sS'perfect'
p1465
I1159
sS'write'
p1466
I131
sS'chosen'
p1467
I1618
sS'kindergarten'
p1468
I1247
sS'willing'
p1469
I1765
sS'choose'
p1470
I760
sS'hobby'
p1471
I696
sS'holiday'
p1472
I348
sS'2011'
p1473
I951
sS'<'
p1474
I683
sS'dad'
p1475
I895
sS'practice'
p1476
I379
sS'sweets'
p1477
I1568
sS'hands'
p1478
I852
sS'front'
p1479
I595
sS'day'
p1480
I65
sS'articles'
p1481
I1194
sS'february'
p1482
I1654
sS'university'
p1483
I182
sS'truth'
p1484
I1575
sS'glasses'
p1485
I1350
sS'doing'
p1486
I292
sS'related'
p1487
I1267
sS'society'
p1488
I729
sS'books'
p1489
I278
sS'our'
p1490
I102
sS'special'
p1491
I654
sS'out'
p1492
I133
sS"'"
p1493
I112
sS'bag'
p1494
I1107
sS'lecture'
p1495
I858
sS'red'
p1496
I1265
sS'dictionary'
p1497
I740
sS'completely'
p1498
I962
sS'surely'
p1499
I1421
sS'york'
p1500
I681
sS'scary'
p1501
I1272
sS'her'
p1502
I76
sS'could'
p1503
I83
sS'times'
p1504
I417
sS'conversation'
p1505
I419
sS'south'
p1506
I1174
sS'exam'
p1507
I429
sS'scene'
p1508
I1009
sS'owner'
p1509
I1390
sS'festival'
p1510
I844
sS'accent'
p1511
I793
sS'system'
p1512
I491
sS'their'
p1513
I109
sS'perfectly'
p1514
I1002
sS'final'
p1515
I845
sS'stomach'
p1516
I1284
sS'stars'
p1517
I1566
sS'academy'
p1518
I1308
sS'completed'
p1519
I1625
sS'exactly'
p1520
I901
sS'july'
p1521
I1244
sS'ipad'
p1522
I1360
sS'loved'
p1523
I1066
sS'colleagues'
p1524
I1209
sS'boring'
p1525
I689
sS'bed'
p1526
I478
sS'loves'
p1527
I1689
sS'visited'
p1528
I787
sS'clip'
p1529
I1620
sS'comfortable'
p1530
I739
sS'tonight'
p1531
I941
sS'gentle'
p1532
I1499
sS'have'
p1533
I17
sS'need'
p1534
I184
sS'clearly'
p1535
I1327
sS'afraid'
p1536
I570
sS'dishes'
p1537
I965
sS'studying'
p1538
I217
sS'kittens'
p1539
I1685
sS'able'
p1540
I232
sS'instance'
p1541
I1146
sS'which'
p1542
I98
sS'korean'
p1543
I459
sS'='
p1544
I735
sS'lecturer'
p1545
I1370
sS'who'
p1546
I89
sS'visa'
p1547
I1426
sS'class'
p1548
I169
sS'url'
p1549
I445
sS'gather'
p1550
I1663
sS'upset'
p1551
I1578
sS'face'
p1552
I430
sS'looked'
p1553
I578
sS'movie'
p1554
I283
sS'painting'
p1555
I1156
sS'fact'
p1556
I441
sS'gain'
p1557
I1662
sS'son'
p1558
I383
sS'impression'
p1559
I1359
sS'atmosphere'
p1560
I1197
sS'anyway'
p1561
I291
sS'bring'
p1562
I890
sS'planning'
p1563
I671
sS'chicken'
p1564
I1207
sS'longer'
p1565
I771
sS'staff'
p1566
I820
sS'knowledge'
p1567
I1150
sS'('
p1568
I46
sS'should'
p1569
I111
sS'riding'
p1570
I1732
sS'piano'
p1571
I1160
sS'hope'
p1572
I145
sS'listened'
p1573
I1371
sS'means'
p1574
I361
sS'familiar'
p1575
I1488
sS'lucky'
p1576
I772
sS'ones'
p1577
I1001
sS'words'
p1578
I272
sS'kong'
p1579
I1366
sS'areas'
p1580
I1444
sS'ended'
p1581
I969
sS'shy'
p1582
I1558
sS'married'
p1583
I1153
sS'stuff'
p1584
I1018
sS'she'
p1585
I67
sS'wish'
p1586
I467
sS'view'
p1587
I1579
sS'national'
p1588
I926
sS'lazy'
p1589
I1369
sS'computer'
p1590
I471
sS'interview'
p1591
I986
sS'nuclear'
p1592
I930
sS'tend'
p1593
I1570
sS'genius'
p1594
I1232
sS'written'
p1595
I657
sS':'
p1596
I61
sS'closed'
p1597
I1328
sS'progress'
p1598
I1397
sS'neither'
p1599
I1697
sS'email'
p1600
I1128
sS'bought'
p1601
I339
sS'ability'
p1602
I613
sS'job'
p1603
I199
sS'key'
p1604
I1509
sS'police'
p1605
I931
sS'precious'
p1606
I1394
sS'drum'
p1607
I1341
sS'career'
p1608
I1611
sS'joke'
p1609
I1683
sS'taking'
p1610
I609
sS'etc'
p1611
I618
sS'admit'
p1612
I1436
sS'passing'
p1613
I1538
sS'comment'
p1614
I1330
sS'co'
p1615
I961
sS'ca'
p1616
I126
sS'walk'
p1617
I564
sS'table'
p1618
I1569
sS'quit'
p1619
I1544
sS'addition'
p1620
I684
sS'exhausted'
p1621
I1487
sS'drank'
p1622
I1042
sS'improve'
p1623
I228
sS'>'
p1624
I714
sS'league'
p1625
I1512
sS'am'
p1626
I63
sS'hmm'
p1627
I1501
sS'finished'
p1628
I594
sS'covered'
p1629
I1466
sS'general'
p1630
I1498
sS'present'
p1631
I673
sS'novel'
p1632
I929
sS'harder'
p1633
I912
sS'2010'
p1634
I1026
sS'will'
p1635
I42
sS'hahaha'
p1636
I1670
sS'~'
p1637
I157
sS'almost'
p1638
I360
sS'thus'
p1639
I1181
sS'site'
p1640
I324
sS'helped'
p1641
I914
sS'partner'
p1642
I1158
sS')'
p1643
I37
sS'began'
p1644
I715
sS'member'
p1645
I993
sS'strange'
p1646
I823
sS'speaker'
p1647
I819
sS'party'
p1648
I354
sS'gets'
p1649
I977
sS'difficult'
p1650
I167
sS'novels'
p1651
I1527
sS'drink'
p1652
I545
sS'effect'
p1653
I1220
sS'student'
p1654
I265
sS'frequently'
p1655
I1497
sS'off'
p1656
I294
sS'center'
p1657
I837
sS'records'
p1658
I1725
sS'i'
p1659
I2
sS'well'
p1660
I118
sS'thought'
p1661
I219
sS'english'
p1662
I29
sS'position'
p1663
I1075
sS'usual'
p1664
I827
sS'stores'
p1665
I1285
sS'less'
p1666
I769
sS'flies'
p1667
I1492
sS'mistakes'
p1668
I670
sS'rooms'
p1669
I1270
sS'skill'
p1670
I631
sS'happiness'
p1671
I911
sS'web'
p1672
I947
sS'drunk'
p1673
I1646
sS'sky'
p1674
I1278
sS'lake'
p1675
I1686
sS'realize'
p1676
I1400
sS'simple'
p1677
I705
sS'add'
p1678
I1103
sS'other'
p1679
I101
sS'smart'
p1680
I1562
sS'homework'
p1681
I458
sS'tests'
p1682
I1292
sS'government'
p1683
I596
sS'five'
p1684
I497
sS'know'
p1685
I70
sS'desk'
p1686
I1634
sS'immediately'
p1687
I1358
sS'loss'
p1688
I1688
sS'necessary'
p1689
I863
sS'like'
p1690
I39
sS'lost'
p1691
I579
sS'lose'
p1692
I642
sS'become'
p1693
I307
sS'works'
p1694
I829
sS'italian'
p1695
I1361
sS'because'
p1696
I47
sS'twitter'
p1697
I1185
sS'thief'
p1698
I1293
sS'library'
p1699
I770
sS'mosquitoes'
p1700
I1379
sS'hair'
p1701
I525
sS'home'
p1702
I170
sS'avoid'
p1703
I1314
sS'does'
p1704
I197
sS'?'
p1705
I30
sS'noise'
p1706
I1384
sS'schedule'
p1707
I1273
sS'journal'
p1708
I577
sS'host'
p1709
I1503
sS'although'
p1710
I255
sS'r'
p1711
I1399
sS'noisy'
p1712
I1699
sS'sister'
p1713
I464
sS'getting'
p1714
I353
sS'sweat'
p1715
I1750
sS'tongue'
p1716
I1295
sS'introduced'
p1717
I1240
sS'software'
p1718
I1172
sS'own'
p1719
I405
sS'weather'
p1720
I376
sS'tiny'
p1721
I1756
sS'female'
p1722
I1655
sS'quickly'
p1723
I748
sS'museum'
p1724
I1524
sS'*'
p1725
I284
sS'noticed'
p1726
I865
sS'overtime'
p1727
I1706
sS'biggest'
p1728
I1452
sS'buy'
p1729
I268
sS'north'
p1730
I999
sS'chatting'
p1731
I1116
sS'bus'
p1732
I796
sS'but'
p1733
I19
sS'reminds'
p1734
I1548
sS'hi'
p1735
I270
sS'goals'
p1736
I850
sS'ha'
p1737
I1353
sS'eat'
p1738
I399
sS'he'
p1739
I45
sS'made'
p1740
I160
sS'places'
p1741
I700
sS'whether'
p1742
I566
sS'dangerous'
p1743
I1121
sS'official'
p1744
I1530
sS'below'
p1745
I835
sS'stories'
p1746
I708
sS'cake'
p1747
I1455
sS'problem'
p1748
I380
sS'piece'
p1749
I1161
sS'minutes'
p1750
I553
sS'contribute'
p1751
I1463
sS'education'
p1752
I968
sS'happen'
p1753
I1058
sS'compared'
p1754
I1117
sS"'ll"
p1755
I143
sS'lately'
p1756
I857
sS'book'
p1757
I241
sS'details'
p1758
I1474
sS'sick'
p1759
I1014
sS'toefl'
p1760
I1423
sS'conclusion'
p1761
I1212
sS'album'
p1762
I1587
sS'kinds'
p1763
I922
sS'monday'
p1764
I721
sS'june'
p1765
I1245
sS'stay'
p1766
I375
sS'chance'
p1767
I542
sS'friends'
p1768
I90
sS'lives'
p1769
I627
s.