(dp0
S'raining'
p1
I814
sS'limited'
p2
I1354
sS'copy'
p3
I3123
sS'personally'
p4
I2504
sS'yellow'
p5
I2572
sS'four'
p6
I643
sS'nursery'
p7
I2310
sS'sleep'
p8
I304
sS'asian'
p9
I1685
sS'consists'
p10
I2242
sS'grandparent'
p11
I2881
sS'oldest'
p12
I3255
sS'hate'
p13
I657
sS'towns'
p14
I3369
sS'consider'
p15
I1771
sS'relationships'
p16
I1513
sS'whose'
p17
I1087
sS'regretted'
p18
I3294
sS'electricity'
p19
I1342
sS'tweet'
p20
I2758
sS'containing'
p21
I3120
sS'presents'
p22
I1913
sS'bike'
p23
I1467
sS'under'
p24
I777
sS'teaching'
p25
I789
sS'sorry'
p26
I500
sS'worth'
p27
I1599
sS'@'
p28
I1374
sS'risk'
p29
I1662
sS'rise'
p30
I2725
sS'costume'
p31
I3124
sS'shoot'
p32
I2991
sS'every'
p33
I174
sS'jack'
p34
I2902
sS'affect'
p35
I3055
sS'tickets'
p36
I1746
sS'believed'
p37
I2226
sS'school'
p38
I99
sS'prize'
p39
I2021
sS'skills'
p40
I403
sS'companies'
p41
I1015
sS'solution'
p42
I1827
sS'samurai'
p43
I2977
sS'convenience'
p44
I1612
sS'red'
p45
I906
sS'employees'
p46
I993
sS'clothes'
p47
I487
sS'enjoy'
p48
I289
sS'bill'
p49
I1963
sS'bicycle'
p50
I1254
sS'java'
p51
I3216
sS'tired'
p52
I312
sS'awake'
p53
I2789
sS'phones'
p54
I2705
sS'bacon'
p55
I3069
sS'japanese'
p56
I55
sS'second'
p57
I343
sS'street'
p58
I788
sS'7th'
p59
I2776
sS'n'
p60
I2141
sS'monster'
p61
I2937
sS'even'
p62
I137
sS'established'
p63
I3163
sS'errors'
p64
I2857
sS'pace'
p65
I2697
sS'thunder'
p66
I2559
sS'+'
p67
I1035
sS'cooking'
p68
I848
sS'fingers'
p69
I2868
sS'asia'
p70
I1843
sS'sung'
p71
I3351
sS'lights'
p72
I2294
sS'above'
p73
I1008
sS'new'
p74
I91
sS'net'
p75
I2143
sS'ever'
p76
I508
sS'disney'
p77
I1869
sS'told'
p78
I295
sS'hero'
p79
I1493
sS'never'
p80
I198
sS'here'
p81
I123
sS'hundreds'
p82
I3205
sS'bangkok'
p83
I1848
sS'met'
p84
I339
sS'china'
p85
I539
sS'active'
p86
I1949
sS'path'
p87
I2702
sS'100'
p88
I1007
sS'dry'
p89
I2258
sS'kids'
p90
I1024
sS'daughter'
p91
I529
sS'items'
p92
I1400
sS'study'
p93
I107
sS'changed'
p94
I605
sS'reports'
p95
I3300
sS'snowing'
p96
I1825
sS'jogging'
p97
I1565
sS'smoke'
p98
I1737
sS'stressed'
p99
I1742
sS'military'
p100
I2010
sS'suitable'
p101
I1931
sS'changes'
p102
I1469
sS'punishment'
p103
I3282
sS'vacations'
p104
I3379
sS'golden'
p105
I1210
sS'fantastic'
p106
I1386
sS'explained'
p107
I2111
sS'feelings'
p108
I827
sS'brought'
p109
I1162
sS'patience'
p110
I3261
sS'thursday'
p111
I1671
sS'actions'
p112
I2208
sS'total'
p113
I1747
sS'landscape'
p114
I2913
sS'charge'
p115
I1855
sS'spoke'
p116
I1314
sS'would'
p117
I97
sS'army'
p118
I3064
sS'hospital'
p119
I770
sS'mexico'
p120
I2679
sS'negative'
p121
I1653
sS'music'
p122
I220
sS'therefore'
p123
I536
sS'passport'
p124
I3260
sS'recommend'
p125
I677
sS'survive'
p126
I3356
sS'sexy'
p127
I2985
sS'type'
p128
I859
sS'tell'
p129
I237
sS'preparation'
p130
I2710
sS'posting'
p131
I2709
sS'relax'
p132
I975
sS'successful'
p133
I2045
sS'brings'
p134
I2598
sS'haha'
p135
I530
sS'yahoo'
p136
I2771
sS'hurt'
p137
I1073
sS'phone'
p138
I542
sS'warm'
p139
I670
sS'adult'
p140
I1950
sS'excellent'
p141
I1385
sS'90'
p142
I2386
sS'hold'
p143
I1349
sS'must'
p144
I268
sS'me'
p145
I27
sS'join'
p146
I1174
sS'room'
p147
I334
sS'shame'
p148
I2175
sS'work'
p149
I93
sS'roof'
p150
I3311
sS'movies'
p151
I548
sS'gloves'
p152
I2879
sS'era'
p153
I2435
sS'mr'
p154
I801
sS'my'
p155
I8
sS'example'
p156
I361
sS'give'
p157
I265
sS'punk'
p158
I2954
sS'india'
p159
I1495
sS'motivated'
p160
I1798
sS'currency'
p161
I3129
sS'foods'
p162
I828
sS'want'
p163
I64
sS'seoul'
p164
I1518
sS'keep'
p165
I263
sS'attract'
p166
I3066
sS'returned'
p167
I1820
sS'ceremony'
p168
I721
sS'aging'
p169
I2390
sS'end'
p170
I323
sS'turn'
p171
I695
sS'provide'
p172
I1446
sS'travel'
p173
I639
sS'sitting'
p174
I1280
sS'feature'
p175
I1782
sS'machine'
p176
I1136
sS'how'
p177
I87
sS'hot'
p178
I365
sS'answer'
p179
I439
sS'ordinary'
p180
I2313
sS'beach'
p181
I1091
sS'pizza'
p182
I2019
sS'badly'
p183
I3070
sS'fever'
p184
I1554
sS'beauty'
p185
I1531
sS'cuisine'
p186
I3128
sS'after'
p187
I88
sS'damaged'
p188
I2832
sS'lab'
p189
I3226
sS'customs'
p190
I1978
sS'complicated'
p191
I2824
sS'dinosaurs'
p192
I2839
sS'wrong'
p193
I522
sS'jumping'
p194
I2670
sS'president'
p195
I1509
sS'law'
p196
I1101
sS'types'
p197
I2056
sS'purchase'
p198
I2331
sS'third'
p199
I911
sS'appreciate'
p200
I916
sS'childhood'
p201
I2813
sS'maintain'
p202
I1900
sS'green'
p203
I610
sS'waitress'
p204
I3382
sS'goodbye'
p205
I3192
sS'enter'
p206
I1044
sS'fan'
p207
I1126
sS'1000'
p208
I2383
sS'order'
p209
I510
sS'wind'
p210
I1229
sS'wine'
p211
I1525
sS'salon'
p212
I1918
sS'office'
p213
I381
sS'dreamed'
p214
I2256
sS'over'
p215
I236
sS'satisfied'
p216
I870
sS'thousands'
p217
I3008
sS'london'
p218
I922
sS'thesis'
p219
I3362
sS'keyboard'
p220
I3223
sS'japan'
p221
I82
sS'talkative'
p222
I3359
sS'before'
p223
I164
sS'fit'
p224
I1885
sS'somewhere'
p225
I979
sS'fix'
p226
I1783
sS','
p227
I3
sS'writing'
p228
I182
sS'better'
p229
I208
sS'weeks'
p230
I593
sS'easier'
p231
I1430
sS'overcome'
p232
I2314
sS'then'
p233
I122
sS'them'
p234
I77
sS'affected'
p235
I1952
sS'tourist'
p236
I2753
sS'rinfone'
p237
I2724
sS'safe'
p238
I1309
sS'runny'
p239
I2975
sS'break'
p240
I845
sS'band'
p241
I1010
sS'roommate'
p242
I2727
sS'effects'
p243
I1628
sS'they'
p244
I53
sS'schools'
p245
I1185
sS'one'
p246
I58
sS'bank'
p247
I1961
sS'bread'
p248
I1012
sS'grammar'
p249
I768
sS'meat'
p250
I1438
sS'potatoes'
p251
I2510
sS'arrested'
p252
I2396
sS'l'
p253
I1352
sS'reasonable'
p254
I1814
sS'each'
p255
I217
sS'addicted'
p256
I2210
sS'went'
p257
I80
sS'side'
p258
I834
sS'bone'
p259
I2593
sS'mean'
p260
I443
sS'financial'
p261
I2443
sS'series'
p262
I871
sS'wednesday'
p263
I2063
sS'hectic'
p264
I3201
sS'taught'
p265
I1226
sS'forgot'
p266
I901
sS'temporary'
p267
I3361
sS'sapporo'
p268
I2170
sS'saturday'
p269
I686
sS'by'
p270
I66
sS'gon'
p271
I782
sS'network'
p272
I1905
sS'driving'
p273
I1095
sS'god'
p274
I781
sS'cameras'
p275
I2233
sS'washed'
p276
I3032
sS'shinkansen'
p277
I2989
sS'content'
p278
I1543
sS're'
p279
I3288
sS'encourage'
p280
I2263
sS'safety'
p281
I1663
sS'adapt'
p282
I2778
sS'medicine'
p283
I1102
sS'got'
p284
I133
sS'engineer'
p285
I1481
sS'forth'
p286
I3179
sS'foundation'
p287
I2876
sS'resume'
p288
I2524
sS'little'
p289
I157
sS'free'
p290
I387
sS'standard'
p291
I1519
sS'management'
p292
I2136
sS'sheet'
p293
I3324
sS'wanted'
p294
I272
sS'ate'
p295
I379
sS'created'
p296
I1863
sS'starts'
p297
I1589
sS'messages'
p298
I1300
sS'days'
p299
I124
sS'choices'
p300
I2815
sS'unknown'
p301
I2375
sS'corrections'
p302
I1018
sS'arrived'
p303
I818
sS'loud'
p304
I2924
sS'cleaning'
p305
I2415
sS'already'
p306
I384
sS'features'
p307
I2440
sS'grade'
p308
I920
sS'cookies'
p309
I2244
sS'hearing'
p310
I1560
sS'wash'
p311
I1942
sS'adopted'
p312
I3052
sS'delicious'
p313
I574
sS'force'
p314
I1391
sS'calorie'
p315
I1968
sS'electronic'
p316
I2261
sS'basketball'
p317
I1332
sS'service'
p318
I717
sS'top'
p319
I1063
sS'girls'
p320
I810
sS'kanto'
p321
I2671
sS'needed'
p322
I941
sS'master'
p323
I886
sS'too'
p324
I119
sS'blossoms'
p325
I1011
sS'tom'
p326
I2052
sS'legs'
p327
I2918
sS'bitter'
p328
I2800
sS'dogs'
p329
I1691
sS'listen'
p330
I420
sS'curtains'
p331
I2249
sS'ceiling'
p332
I1969
sS'murder'
p333
I3252
sS'happily'
p334
I2889
sS'rescue'
p335
I3301
sS'gym'
p336
I1269
sS'serve'
p337
I2733
sS'took'
p338
I226
sS'wisdom'
p339
I2570
sS'noodle'
p340
I2690
sS'western'
p341
I1228
sS'somewhat'
p342
I2739
sS'wasted'
p343
I3385
sS'practiced'
p344
I2328
sS'disadvantages'
p345
I2426
sS'prefecture'
p346
I1103
sS'distance'
p347
I1777
sS'anxiety'
p348
I2783
sS'target'
p349
I2183
sS'showed'
p350
I1312
sS'burger'
p351
I2806
sS'immigrants'
p352
I2894
sS'tree'
p353
I1939
sS'scenes'
p354
I1920
sS'tourists'
p355
I2055
sS'project'
p356
I1217
sS'matter'
p357
I713
sS'classes'
p358
I641
sS'silly'
p359
I1824
sS'speaking'
p360
I332
sS'historical'
p361
I1561
sS'k'
p362
I1643
sS'feeling'
p363
I516
sS'brilliant'
p364
I2803
sS'bridge'
p365
I3085
sS'donkey'
p366
I2843
sS'fashion'
p367
I1069
sS'ran'
p368
I1181
sS'boston'
p369
I1852
sS'modern'
p370
I1439
sS'mind'
p371
I412
sS'mine'
p372
I1076
sS'ginger'
p373
I3191
sS'spent'
p374
I836
sS'talking'
p375
I455
sS'rap'
p376
I3287
sS'seen'
p377
I499
sS'seem'
p378
I891
sS'obviously'
p379
I2492
sS'tells'
p380
I1834
sS'seminar'
p381
I1821
sS'relatively'
p382
I1819
sS'forced'
p383
I3177
sS'strength'
p384
I2741
sS'convenient'
p385
I1862
sS'latter'
p386
I3230
sS'responsible'
p387
I2968
sS'-'
p388
I17
sS'snow'
p389
I511
sS'toeic'
p390
I601
sS'recommended'
p391
I1580
sS'subjects'
p392
I1669
sS'niece'
p393
I2490
sS'laughed'
p394
I1792
sS'explanation'
p395
I2862
sS'blue'
p396
I1037
sS'nobody'
p397
I1053
sS'though'
p398
I199
sS'regular'
p399
I1731
sS'germany'
p400
I1489
sS'letter'
p401
I995
sS'organization'
p402
I2496
sS'exercises'
p403
I3166
sS'proverb'
p404
I2711
sS'coin'
p405
I3111
sS'maria'
p406
I3241
sS'zealand'
p407
I2204
sS'singer'
p408
I1221
sS'don'
p409
I1692
sS'treats'
p410
I3370
sS'medical'
p411
I1272
sS'camp'
p412
I1688
sS'm'
p413
I472
sS'dog'
p414
I688
sS'yours'
p415
I2203
sS'psychology'
p416
I3279
sS'points'
p417
I726
sS'aunt'
p418
I2075
sS'deeply'
p419
I1548
sS'annoyed'
p420
I2782
sS'came'
p421
I230
sS'saying'
p422
I716
sS'selected'
p423
I2983
sS'lyrics'
p424
I1402
sS'converse'
p425
I3122
sS'random'
p426
I2027
sS'radio'
p427
I1411
sS'tohoku'
p428
I2751
sS'participate'
p429
I1807
sS'earth'
p430
I1778
sS'enjoyed'
p431
I415
sS'traditions'
p432
I3012
sS'lessons'
p433
I1175
sS'busy'
p434
I291
sS'proposed'
p435
I2953
sS'spite'
p436
I2355
sS'situations'
p437
I1452
sS'explain'
p438
I826
sS'yen'
p439
I932
sS'sugar'
p440
I2362
sS'theme'
p441
I2188
sS'touched'
p442
I2053
sS'rich'
p443
I1515
sS'rice'
p444
I632
sS'personality'
p445
I1505
sS'wearing'
p446
I1110
sS'do'
p447
I28
sS'colorful'
p448
I2821
sS'wide'
p449
I2065
sS'stop'
p450
I535
sS'television'
p451
I2048
sS'coast'
p452
I1860
sS'pocket'
p453
I2325
sS'amazon'
p454
I2219
sS'h'
p455
I2451
sS'watermelon'
p456
I2770
sS'spirit'
p457
I2354
sS'wedding'
p458
I983
sS'report'
p459
I1582
sS'happiest'
p460
I2453
sS'tips'
p461
I2560
sS'14'
p462
I1460
sS'hall'
p463
I2886
sS'earn'
p464
I1985
sS'bar'
p465
I1425
sS'countries'
p466
I348
sS'textbooks'
p467
I2553
sS'fields'
p468
I2442
sS'translating'
p469
I2372
sS'method'
p470
I1573
sS'twice'
p471
I1193
sS'bad'
p472
I229
sS'architecture'
p473
I2786
sS'release'
p474
I2521
sS'steak'
p475
I2539
sS'ears'
p476
I2428
sS'disaster'
p477
I1549
sS'reference'
p478
I2518
sS'habit'
p479
I2276
sS'generally'
p480
I2446
sS'unexpectedly'
p481
I3023
sS'depends'
p482
I1867
sS'decided'
p483
I299
sS'result'
p484
I744
sS'fail'
p485
I2266
sS'noodles'
p486
I2145
sS'best'
p487
I215
sS'subject'
p488
I1080
sS'brazil'
p489
I3082
sS'00'
p490
I652
sS'said'
p491
I141
sS'lots'
p492
I577
sS'away'
p493
I528
sS'wikipedia'
p494
I2380
sS'grandmother'
p495
I2125
sS'score'
p496
I757
sS'olympics'
p497
I2942
sS'finger'
p498
I2114
sS'warabi'
p499
I3384
sS'hopefully'
p500
I2128
sS'mum'
p501
I1718
sS'lazy'
p502
I921
sS'men'
p503
I924
sS'omg'
p504
I1655
sS'wa'
p505
I3381
sS'nature'
p506
I904
sS'wo'
p507
I560
sS'weak'
p508
I1152
sS'however'
p509
I177
sS'boss'
p510
I719
sS'wear'
p511
I633
sS'extent'
p512
I2863
sS'news'
p513
I390
sS'improve'
p514
I246
sS'pity'
p515
I2156
sS'received'
p516
I927
sS'climate'
p517
I1859
sS'accident'
p518
I1284
sS'reported'
p519
I2337
sS'country'
p520
I283
sS'ill'
p521
I2003
sS'against'
p522
I790
sS'players'
p523
I1245
sS'games'
p524
I636
sS'planned'
p525
I1408
sS'faces'
p526
I1780
sS'studio'
p527
I1593
sS'com'
p528
I1540
sS'asked'
p529
I315
sS'30th'
p530
I3045
sS'tough'
p531
I1318
sS'appeared'
p532
I2393
sS'had'
p533
I60
sS'2nd'
p534
I1601
sS'comprehension'
p535
I2825
sS'trust'
p536
I1940
sS'hitler'
p537
I3204
sS'speak'
p538
I190
sS'bathroom'
p539
I1850
sS'beef'
p540
I2225
sS'source'
p541
I2536
sS'frist'
p542
I3183
sS'three'
p543
I281
sS'been'
p544
I94
sS'.'
p545
I1
sS'confident'
p546
I2095
sS'beer'
p547
I778
sS'much'
p548
I115
sS'interest'
p549
I1398
sS'basic'
p550
I1849
sS'expected'
p551
I1483
sS'flexible'
p552
I3172
sS'entered'
p553
I1343
sS'lovely'
p554
I939
sS'correction'
p555
I2610
sS'threw'
p556
I3365
sS'website'
p557
I437
sS'life'
p558
I160
sS'families'
p559
I1553
sS'innocent'
p560
I2465
sS'relaxing'
p561
I3296
sS'attacked'
p562
I3065
sS'sunshine'
p563
I1932
sS'worker'
p564
I1945
sS'chile'
p565
I3098
sS'child'
p566
I507
sS'catch'
p567
I1039
sS'worked'
p568
I546
sS'voices'
p569
I2197
sS'applied'
p570
I1955
sS'save'
p571
I1000
sS'tank'
p572
I1935
sS'tastes'
p573
I2185
sS'air'
p574
I653
sS'aim'
p575
I2215
sS'ugly'
p576
I2760
sS'near'
p577
I459
sS'suppose'
p578
I1743
sS'teachers'
p579
I776
sS'voice'
p580
I728
sS'leaves'
p581
I1241
sS'mistake'
p582
I997
sS'seven'
p583
I1450
sS'economics'
p584
I1987
sS'olympic'
p585
I2148
sS'played'
p586
I497
sS'is'
p587
I9
sS'sushi'
p588
I1190
sS'it'
p589
I11
sS'player'
p590
I1054
sS'cant'
p591
I2234
sS'im'
p592
I1299
sS'uncle'
p593
I2762
sS'in'
p594
I10
sS'ginza'
p595
I2648
sS'conditioner'
p596
I2420
sS'id'
p597
I1892
sS'if'
p598
I59
sS'grown'
p599
I2275
sS'hong'
p600
I1891
sS'credit'
p601
I3125
sS'things'
p602
I152
sS'make'
p603
I105
sS'demands'
p604
I3139
sS'polaroid'
p605
I2708
sS'amount'
p606
I1159
sS'beside'
p607
I1533
sS'complex'
p608
I1541
sS'patient'
p609
I1407
sS'split'
p610
I3336
sS'babies'
p611
I1846
sS'dvds'
p612
I1429
sS'success'
p613
I1670
sS'several'
p614
I519
sS'european'
p615
I1779
sS'meets'
p616
I2139
sS'pick'
p617
I1808
sS'hang'
p618
I1700
sS'rain'
p619
I571
sS'hand'
p620
I564
sS'effectively'
p621
I2628
sS'documents'
p622
I1983
sS'characters'
p623
I956
sS'supper'
p624
I2046
sS'opportunity'
p625
I1178
sS'thoughts'
p626
I1084
sS'kid'
p627
I1567
sS'kept'
p628
I1135
sS'programs'
p629
I1657
sS'dallas'
p630
I3131
sS'suffering'
p631
I1831
sS'ocean'
p632
I2693
sS'academic'
p633
I1755
sS'contact'
p634
I699
sS'greatest'
p635
I2449
sS'mother'
p636
I280
sS'the'
p637
I4
sS'tasted'
p638
I2549
sS'musical'
p639
I1650
sS'left'
p640
I454
sS'opinions'
p641
I2495
sS'background'
p642
I2587
sS'just'
p643
I92
sS'sentence'
p644
I586
sS'photo'
p645
I1142
sS'laptop'
p646
I1791
sS'sleepy'
p647
I592
sS'aside'
p648
I1844
sS'thanks'
p649
I285
sS'human'
p650
I830
sS'yes'
p651
I650
sS'yet'
p652
I438
sS'previous'
p653
I1409
sS'kanagawa'
p654
I2289
sS'mix'
p655
I3250
sS'cherry'
p656
I862
sS'thick'
p657
I2556
sS'character'
p658
I807
sS'hay'
p659
I3200
sS'greatly'
p660
I2882
sS'board'
p661
I1760
sS'easy'
p662
I392
sS'has'
p663
I83
sS'hat'
p664
I2278
sS'gave'
p665
I501
sS'appreciated'
p666
I2581
sS'bands'
p667
I2588
sS'possible'
p668
I481
sS'cultural'
p669
I2248
sS'birth'
p670
I2405
sS'judge'
p671
I2288
sS'unique'
p672
I1321
sS'dreams'
p673
I1067
sS'apart'
p674
I2072
sS'desire'
p675
I3142
sS'gift'
p676
I1638
sS'texts'
p677
I2554
sS'cooler'
p678
I2245
sS'50'
p679
I1603
sS'specific'
p680
I2999
sS'steps'
p681
I2043
sS'night'
p682
I186
sS'hung'
p683
I2282
sS'signal'
p684
I3328
sS'towards'
p685
I1835
sS'guests'
p686
I2885
sS'www'
p687
I3391
sS'right'
p688
I266
sS'old'
p689
I178
sS'deal'
p690
I1019
sS'people'
p691
I56
sS'somehow'
p692
I1665
sS'dead'
p693
I1866
sS'alice'
p694
I2391
sS'born'
p695
I751
sS'clubs'
p696
I2238
sS'election'
p697
I3154
sS'escape'
p698
I2632
sS'dear'
p699
I1094
sS'for'
p700
I14
sS'bottom'
p701
I2595
sS'ear'
p702
I2848
sS'opposite'
p703
I2694
sS'comments'
p704
I919
sS'creative'
p705
I2613
sS'everything'
p706
I471
sS'asking'
p707
I1686
sS'umm'
p708
I2761
sS'beating'
p709
I3076
sS'christmas'
p710
I429
sS'meanings'
p711
I2302
sS'fish'
p712
I961
sS'heartbeat'
p713
I2890
sS'plz'
p714
I3267
sS'graduates'
p715
I3194
sS'translated'
p716
I1672
sS'graduated'
p717
I1267
sS'post'
p718
I714
sS'super'
p719
I1249
sS'chapter'
p720
I3094
sS'dollars'
p721
I1870
sS'months'
p722
I388
sS'o'
p723
I684
sS'dinner'
p724
I410
sS'plus'
p725
I2324
sS'afternoon'
p726
I663
sS'cherish'
p727
I2411
sS'connected'
p728
I2608
sS'efforts'
p729
I2429
sS'curry'
p730
I1261
sS'automatically'
p731
I2586
sS'match'
p732
I970
sS'coins'
p733
I2819
sS'governments'
p734
I3193
sS'lied'
p735
I2675
sS'material'
p736
I2301
sS'delighted'
p737
I2835
sS'bath'
p738
I733
sS'down'
p739
I316
sS'magazines'
p740
I1357
sS'soy'
p741
I1926
sS'particularly'
p742
I2700
sS'east'
p743
I1986
sS'mcdonald'
p744
I3244
sS'support'
p745
I1081
sS'tennis'
p746
I804
sS'available'
p747
I2399
sS'why'
p748
I146
sS'stuck'
p749
I2544
sS'quiet'
p750
I1511
sS'way'
p751
I131
sS'call'
p752
I468
sS'was'
p753
I15
sS'war'
p754
I1418
sS'happy'
p755
I153
sS'head'
p756
I963
sS'form'
p757
I1128
sS'offer'
p758
I1406
sS'becoming'
p759
I1253
sS'fireworks'
p760
I1097
sS'yakata'
p761
I3393
sS'mysterious'
p762
I2486
sS'heat'
p763
I1022
sS'hear'
p764
I588
sS'elderly'
p765
I2260
sS'true'
p766
I572
sS'absent'
p767
I2576
sS'inside'
p768
I937
sS'attached'
p769
I2585
sS'maximum'
p770
I3243
sS'until'
p771
I345
sS'mails'
p772
I3239
sS'proud'
p773
I1445
sS'upset'
p774
I1674
sS'textbook'
p775
I2366
sS'drive'
p776
I1263
sS'sometime'
p777
I1248
sS'exist'
p778
I2437
sS'promised'
p779
I3275
sS'request'
p780
I2523
sS'awhile'
p781
I3068
sS'annoying'
p782
I2070
sS'check'
p783
I515
sS'miso'
p784
I3249
sS'physical'
p785
I2155
sS'dying'
p786
I2427
sS'floor'
p787
I1209
sS'colder'
p788
I2094
sS'na'
p789
I756
sS'when'
p790
I51
sS'actor'
p791
I2209
sS'reality'
p792
I1412
sS'ny'
p793
I1442
sS'nz'
p794
I2491
sS'interested'
p795
I380
sS'role'
p796
I2340
sS'holding'
p797
I2461
sS'digital'
p798
I1621
sS'test'
p799
I305
sS'discount'
p800
I1775
sS'smell'
p801
I2351
sS'roll'
p802
I2726
sS'picture'
p803
I612
sS"'t"
p804
I3037
sS"'s"
p805
I25
sS'surprise'
p806
I1744
sS'felt'
p807
I275
sS'diet'
p808
I1619
sS'fell'
p809
I960
sS'scores'
p810
I2172
sS"'m"
p811
I35
sS'weekend'
p812
I416
sS'died'
p813
I991
sS'balloon'
p814
I2791
sS'younger'
p815
I1088
sS'longer'
p816
I938
sS'glass'
p817
I2273
sS'normally'
p818
I2147
sS'daily'
p819
I795
sS'rough'
p820
I2728
sS'vietnam'
p821
I1457
sS'classmate'
p822
I2601
sS'time'
p823
I41
sS'push'
p824
I2956
sS'serious'
p825
I1002
sS'songs'
p826
I614
sS'neighbors'
p827
I2307
sS'concept'
p828
I2606
sS'managed'
p829
I1901
sS'dance'
p830
I752
sS'global'
p831
I1490
sS'focus'
p832
I1555
sS'manager'
p833
I3240
sS'/'
p834
I166
sS'grateful'
p835
I2274
sS'skin'
p836
I1736
sS'battle'
p837
I2590
sS'milk'
p838
I1903
sS'certainly'
p839
I2088
sS'suicide'
p840
I3349
sS'yummy'
p841
I2382
sS'april'
p842
I898
sS'father'
p843
I421
sS'passage'
p844
I2502
sS'environment'
p845
I1168
sS'0'
p846
I1325
sS'finally'
p847
I430
sS'suffered'
p848
I1830
sS'circumstances'
p849
I2092
sS'doremon'
p850
I2623
sS'division'
p851
I1982
sS'advantage'
p852
I1951
sS'recipe'
p853
I3289
sS'choice'
p854
I1257
sS'cnn'
p855
I3109
sS'gloomy'
p856
I2649
sS'entries'
p857
I1123
sS'cook'
p858
I863
sS'word'
p859
I561
sS'trouble'
p860
I758
sS'minute'
p861
I2481
sS'cool'
p862
I606
sS'dim'
p863
I3146
sS'clouds'
p864
I3106
sS'impressive'
p865
I1704
sS'level'
p866
I626
sS'did'
p867
I98
sS'die'
p868
I1618
sS'philippines'
p869
I2320
sS'rights'
p870
I3307
sS'brother'
p871
I793
sS'cloudy'
p872
I1768
sS'grilled'
p873
I2883
sS'leave'
p874
I532
sS'p'
p875
I646
sS'subway'
p876
I1929
sS'team'
p877
I521
sS'guy'
p878
I620
sS'round'
p879
I2526
sS'added'
p880
I3051
sS'prevent'
p881
I2160
sS'pork'
p882
I1578
sS'talked'
p883
I474
sS'says'
p884
I687
sS'regret'
p885
I1658
sS'sigh'
p886
I2992
sS'akihabara'
p887
I2216
sS'literature'
p888
I1569
sS'sign'
p889
I1823
sS'lang8'
p890
I2472
sS'cost'
p891
I809
sS'dried'
p892
I2624
sS'run'
p893
I518
sS'fear'
p894
I2439
sS'drinks'
p895
I1293
sS'stands'
p896
I2538
sS'mt'
p897
I1904
sS'celebrated'
p898
I2600
sS'debate'
p899
I2615
sS'current'
p900
I1260
sS'goes'
p901
I881
sS'international'
p902
I812
sS'falling'
p903
I1988
sS'filled'
p904
I2113
sS'supporting'
p905
I3003
sS'digitalization'
p906
I3145
sS'heavily'
p907
I2456
sS'clerk'
p908
I3104
sS'v'
p909
I2765
sS'french'
p910
I765
sS'okinawa'
p911
I1303
sS'water'
p912
I376
sS'baseball'
p913
I952
sS'groups'
p914
I2000
sS'address'
p915
I2388
sS'alone'
p916
I617
sS'['
p917
I568
sS'teaches'
p918
I2550
sS'teacher'
p919
I225
sS'change'
p920
I389
sS'wait'
p921
I573
sS'box'
p922
I1607
sS'boy'
p923
I792
sS'buch'
p924
I2804
sS'thirty'
p925
I2367
sS'canadian'
p926
I1536
sS'healthy'
p927
I1395
sS'shift'
p928
I2988
sS'studied'
p929
I543
sS'trial'
p930
I2756
sS'exams'
p931
I735
sS'bon'
p932
I2801
sS'usually'
p933
I313
sS'weird'
p934
I2064
sS'studies'
p935
I1224
sS'taipei'
p936
I1934
sS'tasks'
p937
I2746
sS'love'
p938
I158
sS'extra'
p939
I1631
sS'prefer'
p940
I1104
sS'bloody'
p941
I3080
sS'losing'
p942
I2923
sS'snowboard'
p943
I2995
sS'1st'
p944
I1326
sS'calligraphy'
p945
I2232
sS'rarely'
p946
I2517
sS'crisis'
p947
I2101
sS'market'
p948
I1075
sS'everybody'
p949
I635
sS'working'
p950
I250
sS'prove'
p951
I3277
sS'sake'
p952
I1414
sS'positive'
p953
I1247
sS'angry'
p954
I913
sS'visit'
p955
I445
sS'only'
p956
I113
sS'france'
p957
I1346
sS'msn'
p958
I1800
sS'live'
p959
I200
sS'wood'
p960
I3034
sS'iphone'
p961
I1134
sS'wondering'
p962
I931
sS'memory'
p963
I1359
sS'films'
p964
I1345
sS'australian'
p965
I1959
sS'today'
p966
I49
sS'loving'
p967
I2297
sS'introducing'
p968
I2287
sS'``'
p969
I18
sS'sharing'
p970
I3321
sS'club'
p971
I476
sS'suggestions'
p972
I3348
sS'phillies'
p973
I2948
sS'chocolate'
p974
I1014
sS'downtown'
p975
I3151
sS'visual'
p976
I2767
sS'everywhere'
p977
I1384
sS'cases'
p978
I2408
sS'effort'
p979
I1042
sS'fly'
p980
I2872
sS'states'
p981
I1369
sS'tokyo'
p982
I267
sS'car'
p983
I357
sS'originally'
p984
I1907
sS'flu'
p985
I1784
sS'soul'
p986
I1828
sS'cat'
p987
I583
sS'soup'
p988
I2535
sS'values'
p989
I3380
sS'can'
p990
I44
sS'9th'
p991
I1839
sS'following'
p992
I935
sS'making'
p993
I440
sS'metal'
p994
I2931
sS'arrive'
p995
I1756
sS'hiroshima'
p996
I1786
sS'heart'
p997
I589
sS'crazy'
p998
I780
sS'citizens'
p999
I2412
sS'figure'
p1000
I1633
sS'december'
p1001
I1546
sS'awesome'
p1002
I1330
sS'cantonese'
p1003
I2810
sS'confused'
p1004
I1202
sS'topic'
p1005
I949
sS'heard'
p1006
I325
sS'stroke'
p1007
I2044
sS'dropped'
p1008
I2109
sS'allowed'
p1009
I1841
sS'genpets'
p1010
I3189
sS'clothing'
p1011
I2093
sS'pink'
p1012
I2950
sS'winter'
p1013
I615
sS'fortunately'
p1014
I798
sS'discussion'
p1015
I2841
sS'watching'
p1016
I378
sS'sudden'
p1017
I3002
sS'magazine'
p1018
I1645
sS'1'
p1019
I248
sS'till'
p1020
I1192
sS'sunday'
p1021
I600
sS'fourth'
p1022
I2270
sS'significant'
p1023
I2736
sS'speaks'
p1024
I1927
sS'economy'
p1025
I1166
sS'map'
p1026
I2137
sS'staying'
p1027
I1148
sS'designer'
p1028
I2837
sS'laundry'
p1029
I2915
sS'huge'
p1030
I1298
sS'may'
p1031
I231
sS'southern'
p1032
I3335
sS'applications'
p1033
I2785
sS'mac'
p1034
I1571
sS'birthday'
p1035
I432
sS'sns'
p1036
I1588
sS'islands'
p1037
I2901
sS'date'
p1038
I1066
sS'such'
p1039
I201
sS'guys'
p1040
I598
sS'grow'
p1041
I1268
sS'man'
p1042
I294
sS'classroom'
p1043
I2413
sS'stress'
p1044
I1150
sS'surfing'
p1045
I2182
sS'natural'
p1046
I590
sS'remember'
p1047
I550
sS'succeeded'
p1048
I3347
sS'whenever'
p1049
I984
sS'maybe'
p1050
I278
sS'fluent'
p1051
I2643
sS'so'
p1052
I22
sS'snowed'
p1053
I2996
sS'tall'
p1054
I2548
sS'increase'
p1055
I1397
sS'pulled'
p1056
I2026
sS'manga'
p1057
I1137
sS'talk'
p1058
I209
sS'cute'
p1059
I596
sS'shoes'
p1060
I1585
sS'feb'
p1061
I2638
sS'indeed'
p1062
I2005
sS'differences'
p1063
I1620
sS'mainly'
p1064
I1646
sS'years'
p1065
I136
sS'professors'
p1066
I2162
sS'course'
p1067
I290
sS'nbsp'
p1068
I1651
sS'cold'
p1069
I251
sS'still'
p1070
I173
sS'birds'
p1071
I2227
sS'accepted'
p1072
I2207
sS'group'
p1073
I656
sS'thank'
p1074
I205
sS'interesting'
p1075
I258
sS'comic'
p1076
I1973
sS'troubles'
p1077
I2757
sS'amazing'
p1078
I1158
sS'forms'
p1079
I2875
sS'window'
p1080
I1323
sS'policy'
p1081
I2327
sS'mail'
p1082
I773
sS'main'
p1083
I800
sS'texas'
p1084
I2365
sS'happened'
p1085
I478
sS'non'
p1086
I1441
sS'lonely'
p1087
I1500
sS'finance'
p1088
I3171
sS'views'
p1089
I3028
sS'conversations'
p1090
I1426
sS'introduce'
p1091
I625
sS'lunch'
p1092
I422
sS'touching'
p1093
I3011
sS'half'
p1094
I525
sS'not'
p1095
I36
sS'now'
p1096
I72
sS'twilight'
p1097
I3374
sS'killed'
p1098
I1270
sS'nor'
p1099
I1654
sS'term'
p1100
I1033
sS'name'
p1101
I227
sS'january'
p1102
I1213
sS'drop'
p1103
I2625
sS'locked'
p1104
I3236
sS'rock'
p1105
I1516
sS'repaired'
p1106
I3299
sS'concerts'
p1107
I2826
sS'turtle'
p1108
I3372
sS'square'
p1109
I2041
sS'yeah'
p1110
I1113
sS'challenges'
p1111
I3093
sS'wrap'
p1112
I3390
sS'ex'
p1113
I1630
sS'entering'
p1114
I2433
sS'year'
p1115
I110
sS'girl'
p1116
I385
sS'morning'
p1117
I191
sS'amusement'
p1118
I3060
sS'plans'
p1119
I803
sS'canada'
p1120
I822
sS'living'
p1121
I436
sS'shown'
p1122
I3326
sS'opened'
p1123
I1363
sS'3rd'
p1124
I2573
sS'space'
p1125
I1059
sS'profit'
p1126
I3273
sS'tulips'
p1127
I3019
sS'furthermore'
p1128
I1637
sS'miyazaki'
p1129
I1301
sS'factory'
p1130
I1696
sS'looking'
p1131
I279
sS'attracted'
p1132
I2074
sS'seriously'
p1133
I1055
sS'internet'
p1134
I442
sS'correct'
p1135
I242
sS'shows'
p1136
I1219
sS'costumes'
p1137
I2611
sS'attended'
p1138
I877
sS'theory'
p1139
I2049
sS'state'
p1140
I1590
sS'cars'
p1141
I1764
sS'million'
p1142
I2680
sS'possibility'
p1143
I3269
sS'quite'
p1144
I526
sS'romans'
p1145
I3310
sS'advantages'
p1146
I2211
sS'besides'
p1147
I1161
sS'grandma'
p1148
I2652
sS'poems'
p1149
I2158
sS'card'
p1150
I878
sS'care'
p1151
I447
sS'advance'
p1152
I1424
sS'training'
p1153
I858
sS'language'
p1154
I183
sS'calories'
p1155
I2808
sS'modest'
p1156
I2482
sS'british'
p1157
I1092
sS'honest'
p1158
I1350
sS'thing'
p1159
I274
sS'place'
p1160
I259
sS'massive'
p1161
I3242
sS'skiing'
p1162
I2038
sS'star'
p1163
I2357
sS'think'
p1164
I67
sS'waited'
p1165
I2568
sS'first'
p1166
I76
sS'cheese'
p1167
I1857
sS'flying'
p1168
I2118
sS'saving'
p1169
I3314
sS'spoken'
p1170
I2040
sS'waves'
p1171
I2569
sS'potter'
p1172
I1810
sS'xd'
p1173
I912
sS'yourself'
p1174
I1153
sS'americans'
p1175
I1683
sS'long'
p1176
I130
sS'directly'
p1177
I1480
sS'spanish'
p1178
I910
sS'carry'
p1179
I1763
sS'impossible'
p1180
I1642
sS'sounds'
p1181
I745
sS'drove'
p1182
I1339
sS'open'
p1183
I888
sS'tomorrow'
p1184
I207
sS'size'
p1185
I1187
sS'rented'
p1186
I2967
sS'city'
p1187
I310
sS'given'
p1188
I1045
sS'checked'
p1189
I1199
sS'silent'
p1190
I2349
sS'caught'
p1191
I1119
sS'slept'
p1192
I909
sS'weekdays'
p1193
I3387
sS'plastic'
p1194
I2707
sS'anyone'
p1195
I732
sS'2'
p1196
I204
sS'draft'
p1197
I2844
sS'siberia'
p1198
I3327
sS'typing'
p1199
I2374
sS'white'
p1200
I762
sS'participated'
p1201
I2318
sS'friend'
p1202
I112
sS'gives'
p1203
I1131
sS'selengeti'
p1204
I2984
sS'shizuoka'
p1205
I2734
sS'eyes'
p1206
I797
sS'mostly'
p1207
I2685
sS'that'
p1208
I16
sS'season'
p1209
I460
sS'suit'
p1210
I2545
sS'released'
p1211
I2964
sS'thai'
p1212
I1108
sS'flowers'
p1213
I1390
sS'than'
p1214
I126
sS'boyfriend'
p1215
I806
sS'11'
p1216
I861
sS'10'
p1217
I383
sS'13'
p1218
I1679
sS'12'
p1219
I987
sS'15'
p1220
I988
sS'unfortunately'
p1221
I805
sS'17'
p1222
I1838
sS'16'
p1223
I1461
sS'depressed'
p1224
I1476
sS'18'
p1225
I1753
sS'require'
p1226
I2028
sS'summary'
p1227
I2745
sS'future'
p1228
I373
sS'were'
p1229
I96
sS'cards'
p1230
I2407
sS'college'
p1231
I419
sS'proofread'
p1232
I2952
sS'russia'
p1233
I2342
sS'published'
p1234
I3280
sS'and'
p1235
I7
sS'troublesome'
p1236
I3017
sS'illness'
p1237
I2004
sS'san'
p1238
I2029
sS'remained'
p1239
I3297
sS'topics'
p1240
I1372
sS'turned'
p1241
I1320
sS'sad'
p1242
I396
sS'say'
p1243
I163
sS'rained'
p1244
I2714
sS'rent'
p1245
I1660
sS'exchanging'
p1246
I2859
sS'breakfast'
p1247
I820
sS'recover'
p1248
I1816
sS'saw'
p1249
I317
sS'any'
p1250
I185
sS'marathon'
p1251
I2138
sS'sat'
p1252
I1517
sS'coach'
p1253
I2818
sS'speakers'
p1254
I621
sS'cheerful'
p1255
I3096
sS'efficient'
p1256
I2629
sS'foreigner'
p1257
I1991
sS'ideas'
p1258
I1133
sS'shocked'
p1259
I1186
sS'note'
p1260
I1802
sS'animation'
p1261
I933
sS'take'
p1262
I145
sS'online'
p1263
I725
sS'performance'
p1264
I1720
sS'encouraged'
p1265
I2431
sS'registered'
p1266
I1818
sS'surf'
p1267
I2047
sS'200'
p1268
I3040
sS'begin'
p1269
I1065
sS'sure'
p1270
I382
sS'pain'
p1271
I944
sS'normal'
p1272
I887
sS'track'
p1273
I2754
sS'price'
p1274
I742
sS'knew'
p1275
I703
sS'paid'
p1276
I1028
sS'falls'
p1277
I1989
sS'occurred'
p1278
I2493
sS'pair'
p1279
I2315
sS'america'
p1280
I604
sS']'
p1281
I555
sS'pages'
p1282
I2698
sS'forever'
p1283
I1488
sS'harlem'
p1284
I3198
sS'especially'
p1285
I333
sS'surprising'
p1286
I2364
sS'considered'
p1287
I2421
sS'egg'
p1288
I1694
sS'average'
p1289
I1758
sS'later'
p1290
I485
sS'hungry'
p1291
I1351
sS'tooth'
p1292
I2561
sS'sunset'
p1293
I3353
sS'professional'
p1294
I1510
sS'senior'
p1295
I1584
sS'salt'
p1296
I3313
sS'shop'
p1297
I451
sS'walking'
p1298
I1086
sS'show'
p1299
I425
sS'german'
p1300
I1130
sS'cheap'
p1301
I1256
sS'discovered'
p1302
I1776
sS'bright'
p1303
I2081
sS'corner'
p1304
I1689
sS'forecast'
p1305
I1990
sS'imagined'
p1306
I2463
sS'fifth'
p1307
I2866
sS'ground'
p1308
I1557
sS'slow'
p1309
I1587
sS'title'
p1310
I840
sS'3'
p1311
I221
sS'either'
p1312
I1043
sS'2chan'
p1313
I2775
sS'tears'
p1314
I1250
sS'going'
p1315
I108
sS'black'
p1316
I640
sS'enthusiasm'
p1317
I3161
sS'correctly'
p1318
I1976
sS'get'
p1319
I100
sS'assistant'
p1320
I1757
sS'refreshed'
p1321
I2718
sS'expectation'
p1322
I2860
sS'truly'
p1323
I3371
sS'nearly'
p1324
I1652
sS'osechi'
p1325
I2695
sS'installed'
p1326
I2899
sS'celebrate'
p1327
I917
sS'prime'
p1328
I3272
sS'regarding'
p1329
I2719
sS'dramas'
p1330
I1624
sS'borrow'
p1331
I2594
sS'worried'
p1332
I661
sS'jokes'
p1333
I2006
sS'stupid'
p1334
I981
sS'landlord'
p1335
I2471
sS'finishing'
p1336
I1883
sS'pants'
p1337
I2499
sS'where'
p1338
I301
sS'husband'
p1339
I482
sS'concert'
p1340
I958
sS'physically'
p1341
I2949
sS'seat'
p1342
I2173
sS'relative'
p1343
I3295
sS'asleep'
p1344
I1090
sS'surgery'
p1345
I2363
sS'sport'
p1346
I1740
sS'wonder'
p1347
I594
sS'leaning'
p1348
I2916
sS'ways'
p1349
I760
sS'jumped'
p1350
I2466
sS'review'
p1351
I1365
sS'sites'
p1352
I1735
sS'materials'
p1353
I1902
sS'enough'
p1354
I352
sS'between'
p1355
I355
sS'mandarin'
p1356
I2476
sS'import'
p1357
I2464
sS'reading'
p1358
I181
sS'across'
p1359
I1682
sS'fight'
p1360
I1487
sS'notice'
p1361
I1215
sS'jobs'
p1362
I853
sS'august'
p1363
I1115
sS'parent'
p1364
I1908
sS'ju'
p1365
I3219
sS'screen'
p1366
I2032
sS'26'
p1367
I2385
sS'supermarket'
p1368
I1832
sS'rapidly'
p1369
I2958
sS'guitar'
p1370
I865
sS'concentrate'
p1371
I1470
sS'spare'
p1372
I1738
sS'hurts'
p1373
I2893
sS'singers'
p1374
I2350
sS'article'
p1375
I495
sS'cities'
p1376
I1858
sS'come'
p1377
I206
sS'blame'
p1378
I3079
sS'recovered'
p1379
I2961
sS'many'
p1380
I78
sS'region'
p1381
I1182
sS'according'
p1382
I709
sS'personal'
p1383
I1722
sS's'
p1384
I398
sS'loudly'
p1385
I3238
sS'workplace'
p1386
I3389
sS'expression'
p1387
I1068
sS'comes'
p1388
I698
sS'nearby'
p1389
I2014
sS'duty'
p1390
I2847
sS'among'
p1391
I791
sS'key'
p1392
I2007
sS'cancer'
p1393
I1854
sS'color'
p1394
I1286
sS'effective'
p1395
I1341
sS'pot'
p1396
I1912
sS'period'
p1397
I972
sS'pop'
p1398
I1508
sS'satisfaction'
p1399
I2031
sS'3000'
p1400
I3043
sS'learning'
p1401
I192
sS'cancel'
p1402
I2809
sS'moreover'
p1403
I940
sS'boat'
p1404
I1965
sS'turkey'
p1405
I2562
sS'destroyed'
p1406
I2425
sS'arts'
p1407
I1957
sS'cycling'
p1408
I1615
sS'vacation'
p1409
I462
sS'mark'
p1410
I1793
sS'breath'
p1411
I2597
sS'workshop'
p1412
I2199
sS'peaceful'
p1413
I2018
sS'hardly'
p1414
I1021
sS'500'
p1415
I3047
sS'wants'
p1416
I729
sS'direction'
p1417
I2840
sS'shopping'
p1418
I486
sS'influence'
p1419
I3208
sS'offered'
p1420
I1906
sS'sincerely'
p1421
I3329
sS'tiger'
p1422
I3009
sS'photos'
p1423
I1274
sS'observe'
p1424
I2941
sS'wake'
p1425
I896
sS'minister'
p1426
I2934
sS'instant'
p1427
I2285
sS'laying'
p1428
I3231
sS'careful'
p1429
I1093
sS'former'
p1430
I1392
sS'those'
p1431
I344
sS'^'
p1432
I128
sS'case'
p1433
I595
sS'myself'
p1434
I196
sS'hatsune'
p1435
I3199
sS'developing'
p1436
I2255
sS'these'
p1437
I171
sS'sauce'
p1438
I2171
sS'engineering'
p1439
I1875
sS"n't"
p1440
I23
sS'freely'
p1441
I3181
sS'newspaper'
p1442
I1440
sS'situation'
p1443
I491
sS'shops'
p1444
I1056
sS'invited'
p1445
I1399
sS'eventually'
p1446
I1877
sS'coffee'
p1447
I823
sS'sleeping'
p1448
I978
sS'middle'
p1449
I785
sS'good'
p1450
I57
sS'drug'
p1451
I2846
sS'somebody'
p1452
I1313
sS'technology'
p1453
I1082
sS'everyday'
p1454
I349
sS'worry'
p1455
I1458
sS'bags'
p1456
I2790
sS'different'
p1457
I254
sS'widows'
p1458
I3388
sS'develop'
p1459
I1868
sS'doctor'
p1460
I1165
sS'pay'
p1461
I786
sS'reminded'
p1462
I2721
sS'tour'
p1463
I2054
sS'same'
p1464
I239
sS'trip'
p1465
I326
sS'ya'
p1466
I1600
sS'speech'
p1467
I1060
sS'lovers'
p1468
I2925
sS'coworkers'
p1469
I2099
sS'contain'
p1470
I3119
sS'struggling'
p1471
I2543
sS'document'
p1472
I3150
sS'events'
p1473
I1169
sS'pan'
p1474
I2498
sS'kyushu'
p1475
I1897
sS'week'
p1476
I214
sS'finish'
p1477
I607
sS'faculty'
p1478
I3168
sS'singapore'
p1479
I1146
sS'nest'
p1480
I2142
sS'driver'
p1481
I1551
sS'director'
p1482
I1622
sS'persons'
p1483
I3264
sS'running'
p1484
I685
sS'fruit'
p1485
I1636
sS'hanbok'
p1486
I2887
sS'intended'
p1487
I1893
sS'sumo'
p1488
I1594
sS'changing'
p1489
I1285
sS'totally'
p1490
I1251
sS'cartoon'
p1491
I2086
sS'mentally'
p1492
I2929
sS'theater'
p1493
I2555
sS'flies'
p1494
I2117
sS'no'
p1495
I120
sS'lady'
p1496
I1644
sS'physics'
p1497
I2706
sS'without'
p1498
I322
sS'solve'
p1499
I1188
sS'bottle'
p1500
I1761
sS'trains'
p1501
I2190
sS'model'
p1502
I2683
sS'reward'
p1503
I3305
sS'amazed'
p1504
I3059
sS'scholarship'
p1505
I2978
sS'taxi'
p1506
I2187
sS'summer'
p1507
I260
sS'being'
p1508
I399
sS'money'
p1509
I284
sS'rest'
p1510
I691
sS'kill'
p1511
I1498
sS'handed'
p1512
I2888
sS'touch'
p1513
I1317
sS'speed'
p1514
I1005
sS'afterwards'
p1515
I2577
sS'death'
p1516
I1291
sS'secondly'
p1517
I2531
sS'hint'
p1518
I2659
sS'thinking'
p1519
I353
sS'seems'
p1520
I402
sS'except'
p1521
I900
sS'improvement'
p1522
I2895
sS'blog'
p1523
I634
sS'lets'
p1524
I3234
sS'shrine'
p1525
I2533
sS'4'
p1526
I308
sS'tuesday'
p1527
I1836
sS'swim'
p1528
I1107
sS'around'
p1529
I223
sS'desperately'
p1530
I3143
sS'read'
p1531
I156
sS'papers'
p1532
I2316
sS'unnecessary'
p1533
I2564
sS'dark'
p1534
I1338
sS'traffic'
p1535
I1319
sS'mom'
p1536
I673
sS'using'
p1537
I321
sS'cd'
p1538
I1538
sS'correcting'
p1539
I1289
sS'60'
p1540
I2574
sS'fortune'
p1541
I3180
sS'stranger'
p1542
I3001
sS'iphone4'
p1543
I2900
sS'everytime'
p1544
I3164
sS'fishing'
p1545
I2116
sS'greeting'
p1546
I2653
sS'miracle'
p1547
I3248
sS"'ve"
p1548
I139
sS'facing'
p1549
I3167
sS'tsunami'
p1550
I2192
sS'nose'
p1551
I1302
sS'fully'
p1552
I2445
sS'served'
p1553
I2174
sS'tower'
p1554
I3368
sS'sharp'
p1555
I2987
sS'joking'
p1556
I3217
sS'paris'
p1557
I2317
sS'competition'
p1558
I1611
sS'respect'
p1559
I1514
sS'images'
p1560
I3206
sS'thinks'
p1561
I3364
sS'daytime'
p1562
I3133
sS'programming'
p1563
I3274
sS'provided'
p1564
I2712
sS'mood'
p1565
I1273
sS'confirm'
p1566
I3115
sS'memories'
p1567
I1403
sS'ability'
p1568
I678
sS'recorded'
p1569
I2716
sS'moon'
p1570
I1139
sS'throat'
p1571
I2558
sS'critical'
p1572
I1864
sS'23rd'
p1573
I3041
sS'recorder'
p1574
I2717
sS'knife'
p1575
I1711
sS'football'
p1576
I1635
sS'power'
p1577
I570
sS'poem'
p1578
I2326
sS'internship'
p1579
I2286
sS'kyoto'
p1580
I683
sS'communicate'
p1581
I710
sS'unusual'
p1582
I3377
sS'tuition'
p1583
I3018
sS'broken'
p1584
I953
sS'drums'
p1585
I2626
sS'thailand'
p1586
I1520
sS'exciting'
p1587
I723
sS'throw'
p1588
I2189
sS'_'
p1589
I175
sS'on'
p1590
I32
sS'stone'
p1591
I2177
sS'ok'
p1592
I558
sS'oh'
p1593
I480
sS'island'
p1594
I1240
sS'industry'
p1595
I2666
sS'favorite'
p1596
I341
sS'meal'
p1597
I1358
sS'practical'
p1598
I1726
sS'tremendous'
p1599
I3016
sS"'d"
p1600
I337
sS'stand'
p1601
I1741
sS'act'
p1602
I1605
sS'mixed'
p1603
I1796
sS'luck'
p1604
I1176
sS'os'
p1605
I2945
sS'or'
p1606
I73
sS'road'
p1607
I907
sS'checkup'
p1608
I3095
sS'ladies'
p1609
I2912
sS'route'
p1610
I2972
sS'communication'
p1611
I722
sS'image'
p1612
I2129
sS'rising'
p1613
I3309
sS'apologize'
p1614
I2579
sS'elementary'
p1615
I1207
sS'valuable'
p1616
I2195
sS'happening'
p1617
I2657
sS'nowadays'
p1618
I1077
sS'your'
p1619
I106
sS'mental'
p1620
I3245
sS'fill'
p1621
I2268
sS'log'
p1622
I3237
sS'prepare'
p1623
I715
sS'area'
p1624
I665
sS'there'
p1625
I48
sS'hey'
p1626
I1238
sS'lol'
p1627
I576
sS'dreaming'
p1628
I3152
sS'start'
p1629
I347
sS'appears'
p1630
I2580
sS'cats'
p1631
I1118
sS'low'
p1632
I968
sS'lot'
p1633
I111
sS'worst'
p1634
I1459
sS'cultures'
p1635
I1977
sS'osaka'
p1636
I1078
sS'lang'
p1637
I222
sS'verb'
p1638
I2766
sS'spicy'
p1639
I3000
sS'complete'
p1640
I2418
sS'kittens'
p1641
I2469
sS'regard'
p1642
I2520
sS'pitcher'
p1643
I2505
sS'cabinet'
p1644
I2406
sS'bookstore'
p1645
I1966
sS'brain'
p1646
I1608
sS'happier'
p1647
I3197
sS'trying'
p1648
I602
sS'with'
p1649
I31
sS'buying'
p1650
I1232
sS'faster'
p1651
I1387
sS'volume'
p1652
I3030
sS'pull'
p1653
I3281
sS'october'
p1654
I1362
sS'improved'
p1655
I2283
sS'comics'
p1656
I1861
sS'potato'
p1657
I2509
sS'sadness'
p1658
I2343
sS'dirty'
p1659
I2619
sS'organize'
p1660
I3256
sS'grass'
p1661
I1999
sS'agree'
p1662
I950
sS'connect'
p1663
I3116
sS'strongly'
p1664
I1829
sS'gone'
p1665
I681
sS'videos'
p1666
I2566
sS'cinema'
p1667
I2237
sS'exhausted'
p1668
I1344
sS'certain'
p1669
I1334
sS'accents'
p1670
I2206
sS'describe'
p1671
I2106
sS'moved'
p1672
I868
sS'sales'
p1673
I1415
sS'deep'
p1674
I1474
sS'general'
p1675
I1266
sS'alarm'
p1676
I2217
sS'as'
p1677
I50
sS'tasty'
p1678
I2186
sS'at'
p1679
I37
sS'file'
p1680
I2640
sS'hobbies'
p1681
I1702
sS'girlfriend'
p1682
I1099
sS'watched'
p1683
I354
sS'deed'
p1684
I2834
sS'horse'
p1685
I2660
sS'film'
p1686
I654
sS'ice'
p1687
I1433
sS'again'
p1688
I172
sS'yoga'
p1689
I1420
sS'bored'
p1690
I1198
sS'graduate'
p1691
I783
sS'field'
p1692
I1096
sS'housework'
p1693
I2281
sS'5'
p1694
I350
sS'lifestyle'
p1695
I2921
sS'you'
p1696
I20
sS'thousand'
p1697
I2368
sS'poor'
p1698
I498
sS'oneself'
p1699
I2943
sS'vocabulary'
p1700
I759
sS'students'
p1701
I247
sS'symbol'
p1702
I3004
sS'teeth'
p1703
I2552
sS'includes'
p1704
I2897
sS'gifts'
p1705
I2123
sS'important'
p1706
I277
sS'stocks'
p1707
I2541
sS'pool'
p1708
I1246
sS'missed'
p1709
I1717
sS'building'
p1710
I1117
sS'difficulties'
p1711
I2108
sS'calls'
p1712
I1967
sS'wife'
p1713
I466
sS'finished'
p1714
I509
sS'data'
p1715
I2833
sS'hello'
p1716
I234
sS'remioromen'
p1717
I2966
sS'u'
p1718
I545
sS'scare'
p1719
I3315
sS'overseas'
p1720
I1503
sS'starting'
p1721
I816
sS'original'
p1722
I1027
sS'all'
p1723
I79
sS'surrounded'
p1724
I2546
sS'forget'
p1725
I608
sS'chinese'
p1726
I320
sS'caused'
p1727
I1765
sS'lack'
p1728
I1568
sS'dollar'
p1729
I1984
sS'month'
p1730
I330
sS'commute'
p1731
I1974
sS'pregnant'
p1732
I3270
sS'dish'
p1733
I1981
sS'follow'
p1734
I1070
sS'expressions'
p1735
I1170
sS'disk'
p1736
I3147
sS'decisions'
p1737
I3136
sS'children'
p1738
I346
sS'causes'
p1739
I2235
sS'strangers'
p1740
I2740
sS'apartment'
p1741
I915
sS'hunting'
p1742
I1494
sS'tv'
p1743
I375
sS'acting'
p1744
I3049
sS'opportunities'
p1745
I1502
sS'laughing'
p1746
I2130
sS'to'
p1747
I5
sS'program'
p1748
I676
sS'dairy'
p1749
I2250
sS'spain'
p1750
I2353
sS'smile'
p1751
I1416
sS'enjoying'
p1752
I1264
sS'presentation'
p1753
I1179
sS'ta'
p1754
I2547
sS'activities'
p1755
I1195
sS'woman'
p1756
I513
sS'appointment'
p1757
I2394
sS'worse'
p1758
I874
sS'spreading'
p1759
I3338
sS'song'
p1760
I492
sS'very'
p1761
I39
sS'bune'
p1762
I3087
sS'fat'
p1763
I1127
sS'personnel'
p1764
I2703
sS'sons'
p1765
I1925
sS'diary'
p1766
I165
sS'decide'
p1767
I1121
sS'fall'
p1768
I712
sS'sony'
p1769
I2998
sS'ticket'
p1770
I2051
sS'difference'
p1771
I763
sS'ramen'
p1772
I1143
sS'condition'
p1773
I1542
sS'`'
p1774
I414
sS'washing'
p1775
I1322
sS'mothers'
p1776
I3251
sS'evaluation'
p1777
I2264
sS'list'
p1778
I1355
sS'joined'
p1779
I771
sS'grandfather'
p1780
I2880
sS'large'
p1781
I1025
sS'sang'
p1782
I2030
sS'sand'
p1783
I2344
sS'harry'
p1784
I1559
sS'small'
p1785
I393
sS'population'
p1786
I1725
sS'neighborhood'
p1787
I2939
sS'ten'
p1788
I1062
sS'tea'
p1789
I461
sS'streets'
p1790
I1928
sS'understanding'
p1791
I1749
sS'cash'
p1792
I3091
sS'past'
p1793
I549
sS'19'
p1794
I2067
sS'rate'
p1795
I2333
sS'titles'
p1796
I2750
sS'design'
p1797
I1164
sS'pass'
p1798
I647
sS'further'
p1799
I2122
sS'nba'
p1800
I2013
sS'podcasts'
p1801
I2157
sS'what'
p1802
I61
sS'stood'
p1803
I2359
sS'clock'
p1804
I847
sS'sun'
p1805
I1006
sS'section'
p1806
I2732
sS'learner'
p1807
I2917
sS'anniversary'
p1808
I1954
sS'version'
p1809
I1941
sS'sunrise'
p1810
I3352
sS'learned'
p1811
I531
sS'public'
p1812
I926
sS'movement'
p1813
I2306
sS'full'
p1814
I556
sS'christian'
p1815
I3102
sS'ballet'
p1816
I3072
sS'answers'
p1817
I1684
sS'forgive'
p1818
I3178
sS'hours'
p1819
I335
sS'november'
p1820
I1803
sS'strong'
p1821
I504
sS'search'
p1822
I1449
sS'bible'
p1823
I2404
sS'colored'
p1824
I2603
sS'ahead'
p1825
I3056
sS'houses'
p1826
I1562
sS'inspired'
p1827
I3210
sS'allows'
p1828
I3058
sS'experience'
p1829
I395
sS'airport'
p1830
I1157
sS'base'
p1831
I2589
sS'social'
p1832
I1222
sS'action'
p1833
I1375
sS'via'
p1834
I3027
sS'followed'
p1835
I3176
sS'family'
p1836
I238
sS'suddenly'
p1837
I649
sS'put'
p1838
I406
sS'semester'
p1839
I929
sS'actress'
p1840
I3050
sS'watashi'
p1841
I2769
sS'subculture'
p1842
I2743
sS'eye'
p1843
I2112
sS'takes'
p1844
I669
sS'answered'
p1845
I1530
sS'two'
p1846
I143
sS'6'
p1847
I467
sS'taken'
p1848
I872
sS'more'
p1849
I74
sS'flat'
p1850
I2869
sS'door'
p1851
I880
sS'knows'
p1852
I1401
sS'company'
p1853
I241
sS'corrected'
p1854
I1288
sS'telephone'
p1855
I2748
sS'koma'
p1856
I2911
sS'excuse'
p1857
I1879
sS'basically'
p1858
I2077
sS'broke'
p1859
I1116
sS'particular'
p1860
I1656
sS'known'
p1861
I738
sS'factories'
p1862
I2634
sS'karaoke'
p1863
I1790
sS'glad'
p1864
I609
sS'town'
p1865
I457
sS'keeping'
p1866
I1497
sS'hour'
p1867
I755
sS'science'
p1868
I1366
sS'faced'
p1869
I2864
sS'mall'
p1870
I1647
sS'paragraph'
p1871
I2500
sS'nine'
p1872
I2016
sS'resources'
p1873
I2165
sS'learn'
p1874
I154
sS'male'
p1875
I2300
sS'history'
p1876
I631
sS'beautiful'
p1877
I302
sS'compare'
p1878
I1975
sS'challenging'
p1879
I1610
sS'brown'
p1880
I2082
sS'|'
p1881
I3394
sS'share'
p1882
I1311
sS'accept'
p1883
I1681
sS'autumn'
p1884
I951
sS'minimum'
p1885
I3247
sS'numbers'
p1886
I2017
sS'sense'
p1887
I908
sS'phrase'
p1888
I1305
sS'airplane'
p1889
I1528
sS'dress'
p1890
I1873
sS'!'
p1891
I13
sS'information'
p1892
I517
sS'needs'
p1893
I925
sS'court'
p1894
I2612
sS'goal'
p1895
I766
sS'awkward'
p1896
I2076
sS'rather'
p1897
I905
sS'stayed'
p1898
I838
sS'musicians'
p1899
I3253
sS'shirts'
p1900
I2990
sS'recording'
p1901
I3290
sS'plant'
p1902
I1507
sS'okay'
p1903
I1216
sS'tried'
p1904
I394
sS'rude'
p1905
I2973
sS'communicating'
p1906
I2240
sS'advice'
p1907
I876
sS'plane'
p1908
I2321
sS'blood'
p1909
I1255
sS'coming'
p1910
I404
sS'bloom'
p1911
I1964
sS'response'
p1912
I2723
sS'a'
p1913
I6
sS'short'
p1914
I520
sS'crowded'
p1915
I1865
sS'author'
p1916
I1197
sS'overnight'
p1917
I2696
sS'volleyball'
p1918
I2378
sS'eiken'
p1919
I2630
sS'perhaps'
p1920
I1721
sS'responsibility'
p1921
I2339
sS'fundamental'
p1922
I2645
sS'media'
p1923
I1648
sS'pleasure'
p1924
I2323
sS'dream'
p1925
I463
sS'playing'
p1926
I413
sS'replied'
p1927
I2522
sS'photoshop'
p1928
I2154
sS'help'
p1929
I147
sS'reservoir'
p1930
I3303
sS'september'
p1931
I976
sS'developed'
p1932
I1979
sS'advised'
p1933
I3054
sS'soon'
p1934
I269
sS'trade'
p1935
I2755
sS'held'
p1936
I666
sS'attitude'
p1937
I1845
sS'paper'
p1938
I741
sS'through'
p1939
I336
sS'hell'
p1940
I2457
sS'suffer'
p1941
I1930
sS'its'
p1942
I342
sS'register'
p1943
I2962
sS'24'
p1944
I1422
sS'25'
p1945
I1526
sS'style'
p1946
I622
sS'27'
p1947
I2774
sS'20'
p1948
I718
sS'21'
p1949
I1754
sS'22'
p1950
I1947
sS'23'
p1951
I1421
sS'pray'
p1952
I1728
sS'sale'
p1953
I2169
sS'28'
p1954
I3042
sS'actually'
p1955
I252
sS'late'
p1956
I502
sS'resort'
p1957
I2722
sS'parts'
p1958
I2152
sS'systems'
p1959
I3006
sS'symptoms'
p1960
I3005
sS'travelling'
p1961
I3014
sS'soccer'
p1962
I637
sS'might'
p1963
I327
sS'dolls'
p1964
I2842
sS'colleague'
p1965
I1972
sS'evening'
p1966
I700
sS'return'
p1967
I928
sS'calm'
p1968
I1687
sS'entire'
p1969
I2855
sS'food'
p1970
I271
sS'ff4'
p1971
I3169
sS'primary'
p1972
I2951
sS'starbucks'
p1973
I3340
sS'foot'
p1974
I1697
sS'bigger'
p1975
I1333
sS'easily'
p1976
I623
sS'fantasy'
p1977
I2865
sS'always'
p1978
I150
sS'refresh'
p1979
I2519
sS'capability'
p1980
I3089
sS'courses'
p1981
I2097
sS'someone'
p1982
I292
sS'stopped'
p1983
I856
sS'turns'
p1984
I3020
sS'found'
p1985
I202
sS'friendship'
p1986
I2271
sS'heavy'
p1987
I736
sS'status'
p1988
I3341
sS'everyone'
p1989
I245
sS'england'
p1990
I1208
sS'another'
p1991
I318
sS'weight'
p1992
I761
sS'generation'
p1993
I2447
sS'house'
p1994
I193
sS'energy'
p1995
I680
sS'hard'
p1996
I149
sS'reduce'
p1997
I1817
sS'idea'
p1998
I448
sS'hawaii'
p1999
I2455
sS'oil'
p2000
I2311
sS'expect'
p2001
I994
sS'operation'
p2002
I2312
sS'balance'
p2003
I1847
sS'event'
p2004
I824
sS'really'
p2005
I85
sS'anxious'
p2006
I2222
sS'flower'
p2007
I1389
sS'alcohol'
p2008
I1376
sS'wondered'
p2009
I1751
sS'item'
p2010
I1895
sS'since'
p2011
I159
sS'research'
p2012
I1105
sS'participants'
p2013
I2151
sS'health'
p2014
I851
sS'7'
p2015
I603
sS'learners'
p2016
I1899
sS'issue'
p2017
I1435
sS'bye'
p2018
I672
sS'bass'
p2019
I2794
sS'friday'
p2020
I655
sS'guess'
p2021
I557
sS'pleasant'
p2022
I1911
sS'difficulty'
p2023
I1292
sS'reason'
p2024
I328
sS'toy'
p2025
I1417
sS'styles'
p2026
I2360
sS'members'
p2027
I867
sS'imagine'
p2028
I1239
sS'ask'
p2029
I475
sS'teach'
p2030
I407
sS'beginning'
p2031
I844
sS'guest'
p2032
I3196
sS'deer'
p2033
I3137
sS'computers'
p2034
I2605
sS'terrible'
p2035
I895
sS'american'
p2036
I371
sS'leading'
p2037
I2474
sS'scheduled'
p2038
I3316
sS'snowboarding'
p2039
I2352
sS'fallen'
p2040
I2267
sS'interviews'
p2041
I3214
sS'feed'
p2042
I2441
sS'major'
p2043
I667
sS'dont'
p2044
I1623
sS'upper'
p2045
I3378
sS'feel'
p2046
I118
sS'guam'
p2047
I3195
sS'number'
p2048
I690
sS'welcome'
p2049
I1676
sS'traveled'
p2050
I2191
sS'feet'
p2051
I1388
sS'elder'
p2052
I2851
sS'unexpected'
p2053
I3022
sS'done'
p2054
I796
sS'climbing'
p2055
I2417
sS'miss'
p2056
I706
sS'sheep'
p2057
I3323
sS'story'
p2058
I331
sS'temperature'
p2059
I1083
sS'script'
p2060
I2529
sS'introduction'
p2061
I1212
sS'together'
p2062
I456
sS'5th'
p2063
I1423
sS'least'
p2064
I541
sS'paint'
p2065
I2150
sS'station'
p2066
I692
sS'passed'
p2067
I559
sS'hundred'
p2068
I2462
sS'banana'
p2069
I2401
sS'store'
p2070
I659
sS'headache'
p2071
I1639
sS'muscles'
p2072
I2484
sS'relationship'
p2073
I1079
sS'behind'
p2074
I1378
sS'relieved'
p2075
I1581
sS'hotel'
p2076
I829
sS'park'
p2077
I580
sS'kitchen'
p2078
I1709
sS'dentist'
p2079
I2105
sS'part'
p2080
I297
sS'typhoon'
p2081
I1034
sS'doctors'
p2082
I2622
sS'translation'
p2083
I1597
sS'believe'
p2084
I367
sS'runners'
p2085
I2974
sS'obama'
p2086
I2691
sS'king'
p2087
I2290
sS'kind'
p2088
I235
sS'b'
p2089
I749
sS'kindly'
p2090
I2673
sS'gotten'
p2091
I1491
sS'youth'
p2092
I1946
sS'nevertheless'
p2093
I1574
sS'determined'
p2094
I2838
sS'marriage'
p2095
I1794
sS'supposed'
p2096
I1225
sS'kindle'
p2097
I1437
sS'toward'
p2098
I2371
sS'treated'
p2099
I3015
sS'weapon'
p2100
I3386
sS'booth'
p2101
I2802
sS'motivation'
p2102
I1404
sS'uncomfortable'
p2103
I1837
sS'danish'
p2104
I3132
sS'strengthen'
p2105
I3345
sS'reunion'
p2106
I3304
sS'juicy'
p2107
I2907
sS'pedometer'
p2108
I2503
sS'juice'
p2109
I2906
sS'selling'
p2110
I2532
sS'sentences'
p2111
I444
sS'concentration'
p2112
I3113
sS'aged'
p2113
I2214
sS'chores'
p2114
I3101
sS'sell'
p2115
I1310
sS'mountain'
p2116
I1242
sS'nights'
p2117
I2144
sS'built'
p2118
I1534
sS'fiji'
p2119
I3170
sS'dancing'
p2120
I1204
sS'self'
p2121
I892
sS'also'
p2122
I104
sS'accessories'
p2123
I3048
sS'costs'
p2124
I1427
sS'build'
p2125
I2083
sS'finding'
p2126
I1634
sS'kim'
p2127
I3224
sS'tool'
p2128
I1938
sS'graduating'
p2129
I2651
sS'play'
p2130
I303
sS'experienced'
p2131
I1484
sS'electric'
p2132
I1382
sS'eggs'
p2133
I1695
sS'reach'
p2134
I1812
sS'most'
p2135
I155
sS'experiences'
p2136
I1236
sS'plan'
p2137
I473
sS'eaten'
p2138
I1693
sS'70'
p2139
I2575
sS'nothing'
p2140
I418
sS'seasons'
p2141
I3317
sS'extremely'
p2142
I1880
sS'refrigerator'
p2143
I2335
sS'appear'
p2144
I3063
sS'salary'
p2145
I2528
sS'bug'
p2146
I2805
sS'mobile'
p2147
I1138
sS'clear'
p2148
I1201
sS'sometimes'
p2149
I219
sS'cover'
p2150
I2098
sS'luckily'
p2151
I2298
sS'km'
p2152
I2470
sS'traditional'
p2153
I746
sS'ssam'
p2154
I3339
sS'clean'
p2155
I808
sS'latest'
p2156
I1713
sS'yokohama'
p2157
I1752
sS'microsoft'
p2158
I2932
sS'joining'
p2159
I2905
sS'sector'
p2160
I2981
sS'ghibli'
p2161
I1887
sS'humid'
p2162
I2002
sS'phenomenon'
p2163
I3265
sS'gold'
p2164
I1699
sS'fond'
p2165
I2444
sS'session'
p2166
I1922
sS'cds'
p2167
I2087
sS'carefully'
p2168
I1609
sS'hokkaido'
p2169
I1173
sS'find'
p2170
I212
sS'access'
p2171
I1948
sS'interviewer'
p2172
I3213
sS'northern'
p2173
I2940
sS'bilingual'
p2174
I3078
sS'nervous'
p2175
I802
sS'hope'
p2176
I135
sS'19th'
p2177
I3039
sS'unhappy'
p2178
I2058
sS'failed'
p2179
I1431
sS'flights'
p2180
I2870
sS'pretty'
p2181
I727
sS'8'
p2182
I184
sS'circle'
p2183
I2816
sS'discuss'
p2184
I1550
sS'hip'
p2185
I2459
sS'his'
p2186
I95
sS'hit'
p2187
I1023
sS'meanwhile'
p2188
I2928
sS'tommorow'
p2189
I3367
sS'express'
p2190
I850
sS'sunny'
p2191
I1189
sS'grocery'
p2192
I2884
sS'trees'
p2193
I1227
sS'cheaper'
p2194
I1856
sS'famous'
p2195
I364
sS'feels'
p2196
I1881
sS'grew'
p2197
I1889
sS'preparing'
p2198
I999
sS'reply'
p2199
I1661
sS'during'
p2200
I293
sS'him'
p2201
I144
sS'browsing'
p2202
I3086
sS'cry'
p2203
I1259
sS'brush'
p2204
I2599
sS'common'
p2205
I794
sS'activity'
p2206
I1527
sS'x'
p2207
I1112
sS'river'
p2208
I1144
sS'wrote'
p2209
I505
sS'restaurants'
p2210
I1218
sS'scenery'
p2211
I1919
sS'bars'
p2212
I2224
sS'set'
p2213
I775
sS'art'
p2214
I1089
sS'uses'
p2215
I1750
sS'sex'
p2216
I3318
sS'culture'
p2217
I470
sS'see'
p2218
I117
sS'individual'
p2219
I3207
sS'are'
p2220
I33
sS'sea'
p2221
I774
sS'close'
p2222
I642
sS'arm'
p2223
I2582
sS'shower'
p2224
I1451
sS'#'
p2225
I1324
sS'learnt'
p2226
I2008
sS'designed'
p2227
I3140
sS'visiting'
p2228
I2060
sS'pictures'
p2229
I569
sS'wow'
p2230
I1111
sS'currently'
p2231
I1473
sS'please'
p2232
I140
sS'fans'
p2233
I2635
sS'won'
p2234
I930
sS'various'
p2235
I566
sS'probably'
p2236
I585
sS'conditions'
p2237
I3114
sS'funeral'
p2238
I3186
sS'sixth'
p2239
I2737
sS'europe'
p2240
I1482
sS'typhoons'
p2241
I3375
sS'korea'
p2242
I356
sS'recently'
p2243
I262
sS'missing'
p2244
I2935
sS'sold'
p2245
I1368
sS'attention'
p2246
I1160
sS'incident'
p2247
I2665
sS'succeed'
p2248
I2179
sS'genre'
p2249
I3190
sS'fluently'
p2250
I1098
sS'both'
p2251
I446
sS'c'
p2252
I1013
sS'10th'
p2253
I3038
sS'last'
p2254
I114
sS'license'
p2255
I2475
sS'restaurant'
p2256
I490
sS'annual'
p2257
I3062
sS'foreign'
p2258
I273
sS'sensitive'
p2259
I2346
sS'connection'
p2260
I3117
sS'became'
p2261
I514
sS'alot'
p2262
I2781
sS'forgotten'
p2263
I2269
sS'momoko'
p2264
I1797
sS'focused'
p2265
I3175
sS'whole'
p2266
I587
sS'liked'
p2267
I884
sS'point'
p2268
I599
sS'simple'
p2269
I668
sS'sweet'
p2270
I693
sS'kilometers'
p2271
I2467
sS'manners'
p2272
I2678
sS'community'
p2273
I1041
sS'goldfish'
p2274
I2650
sS'stove'
p2275
I3343
sS'simply'
p2276
I1923
sS'likes'
p2277
I966
sS'church'
p2278
I1336
sS'throughout'
p2279
I1937
sS'along'
p2280
I1009
sS'expensive'
p2281
I753
sS'ps'
p2282
I3278
sS'cream'
p2283
I1545
sS'raise'
p2284
I2516
sS'create'
p2285
I1614
sS'outstanding'
p2286
I3257
sS'political'
p2287
I2507
sS'due'
p2288
I849
sS'earthquake'
p2289
I464
sS'pc'
p2290
I831
sS'secret'
p2291
I1921
sS'damn'
p2292
I2104
sS'collected'
p2293
I2820
sS'meeting'
p2294
I488
sS'woke'
p2295
I860
sS'pm'
p2296
I973
sS'dialogue'
p2297
I2618
sS'lived'
p2298
I739
sS'flight'
p2299
I1296
sS'fire'
p2300
I1884
sS'chatted'
p2301
I2089
sS'gas'
p2302
I1886
sS'else'
p2303
I1167
sS'fund'
p2304
I3185
sS'whatever'
p2305
I1523
sS'understand'
p2306
I195
sS'lens'
p2307
I2919
sS'prices'
p2308
I2329
sS'despite'
p2309
I1774
sS'instructor'
p2310
I3211
sS'plants'
p2311
I1275
sS'look'
p2312
I400
sS'raw'
p2313
I2715
sS'straight'
p2314
I1591
sS'tip'
p2315
I1456
sS'twenty'
p2316
I2759
sS'technical'
p2317
I2551
sS'while'
p2318
I188
sS'homework'
p2319
I624
sS'behavior'
p2320
I1532
sS'errand'
p2321
I2856
sS'fun'
p2322
I338
sS'guide'
p2323
I2654
sS'pack'
p2324
I3258
sS'real'
p2325
I591
sS'larger'
p2326
I2914
sS'hoping'
p2327
I2280
sS'century'
p2328
I3092
sS'cleaned'
p2329
I2414
sS'rin'
p2330
I3308
sS'itself'
p2331
I1788
sS'skype'
p2332
I551
sS'ready'
p2333
I1813
sS'rid'
p2334
I3306
sS'chop'
p2335
I3100
sS'funny'
p2336
I453
sS'handsome'
p2337
I2277
sS'italy'
p2338
I1564
sS'shirt'
p2339
I2036
sS'anymore'
p2340
I914
sS'belong'
p2341
I1962
sS'shorter'
p2342
I3325
sS'rules'
p2343
I1917
sS'kimono'
p2344
I1708
sS'contents'
p2345
I2828
sS'grand'
p2346
I2448
sS'9'
p2347
I708
sS'composition'
p2348
I2241
sS'daughters'
p2349
I1616
sS'higher'
p2350
I1432
sS'development'
p2351
I1479
sS'used'
p2352
I240
sS'classmates'
p2353
I957
sS'lie'
p2354
I1714
sS'bonus'
p2355
I2229
sS'assignment'
p2356
I2584
sS'defeat'
p2357
I3138
sS'yesterday'
p2358
I125
sS'holidays'
p2359
I784
sS'moment'
p2360
I645
sS'moving'
p2361
I1243
sS'purpose'
p2362
I1447
sS'nickname'
p2363
I2688
sS'recent'
p2364
I1030
sS'early'
p2365
I434
sS'lower'
p2366
I1570
sS'task'
p2367
I2184
sS'older'
p2368
I1177
sS'anybody'
p2369
I1252
sS'analysis'
p2370
I2220
sS'double'
p2371
I1871
sS'person'
p2372
I244
sS'cheer'
p2373
I2090
sS'anime'
p2374
I1529
sS'y'
p2375
I3392
sS'entry'
p2376
I358
sS'spend'
p2377
I483
sS'tim'
p2378
I3010
sS'titled'
p2379
I3366
sS'abilities'
p2380
I2777
sS'listening'
p2381
I411
sS'ceo'
p2382
I2812
sS'sound'
p2383
I638
sS'examinations'
p2384
I3165
sS'shape'
p2385
I1664
sS'questions'
p2386
I707
sS'world'
p2387
I197
sS'useful'
p2388
I660
sS'taiwan'
p2389
I982
sS'cut'
p2390
I711
sS'$'
p2391
I875
sS'cup'
p2392
I679
sS'disappointed'
p2393
I1205
sS'workers'
p2394
I843
sS'cuz'
p2395
I2831
sS'eager'
p2396
I1874
sS'parents'
p2397
I359
sS'crying'
p2398
I1203
sS'contrary'
p2399
I2243
sS'excited'
p2400
I597
sS'surprised'
p2401
I512
sS'useless'
p2402
I2764
sS'customers'
p2403
I899
sS'australia'
p2404
I748
sS'march'
p2405
I1051
sS'emergency'
p2406
I3157
sS'format'
p2407
I2874
sS'big'
p2408
I253
sS'couple'
p2409
I734
sS'tiring'
p2410
I2370
sS'matters'
p2411
I2477
sS'game'
p2412
I300
sS'foreigners'
p2413
I764
sS'damage'
p2414
I2251
sS'bit'
p2415
I368
sS'helpful'
p2416
I1132
sS'd'
p2417
I469
sS'shaped'
p2418
I2986
sS'message'
p2419
I1026
sS'continue'
p2420
I618
sS'popular'
p2421
I534
sS'foolish'
p2422
I2873
sS'essential'
p2423
I1876
sS'google'
p2424
I1211
sS'often'
p2425
I296
sS'absolutely'
p2426
I1604
sS'spring'
p2427
I553
sS'some'
p2428
I62
sS'back'
p2429
I151
sS'understood'
p2430
I2057
sS'economic'
p2431
I1294
sS'examples'
p2432
I1878
sS'mirror'
p2433
I2682
sS'curious'
p2434
I1690
sS'ourselves'
p2435
I1805
sS'gradually'
p2436
I1998
sS'scale'
p2437
I2731
sS'dull'
p2438
I2627
sS'pet'
p2439
I1723
sS'decision'
p2440
I1547
sS'shall'
p2441
I2035
sS'benefit'
p2442
I2799
sS'per'
p2443
I1304
sS'pen'
p2444
I1576
sS'behave'
p2445
I2796
sS'temple'
p2446
I1453
sS't'
p2447
I386
sS'be'
p2448
I42
sS'eating'
p2449
I575
sS'remembered'
p2450
I1183
sS'continuing'
p2451
I2609
sS'confidence'
p2452
I1258
sS'refused'
p2453
I3292
sS'step'
p2454
I1061
sS'santa'
p2455
I2345
sS'ache'
p2456
I2387
sS'abroad'
p2457
I441
sS'goods'
p2458
I2124
sS'consumption'
p2459
I3118
sS'anything'
p2460
I366
sS'wore'
p2461
I2066
sS'kawasaki'
p2462
I2672
sS'favor'
p2463
I2637
sS'graduation'
p2464
I962
sS'drama'
p2465
I1262
sS'range'
p2466
I3286
sS'mouth'
p2467
I1799
sS'wanna'
p2468
I493
sS'pollution'
p2469
I3268
sS'seeing'
p2470
I815
sS'plenty'
p2471
I1809
sS'hometown'
p2472
I882
sS'into'
p2473
I255
sS'within'
p2474
I1419
sS'nagoya'
p2475
I2487
sS'services'
p2476
I2034
sS'appropriate'
p2477
I2223
sS'lesson'
p2478
I547
sS'sports'
p2479
I894
sS'rolls'
p2480
I2969
sS'clutch'
p2481
I3107
sS'sightseeing'
p2482
I1586
sS'impressed'
p2483
I866
sS'spending'
p2484
I1739
sS'question'
p2485
I465
sS'fast'
p2486
I754
sS'custom'
p2487
I3130
sS'pronunciation'
p2488
I1180
sS'doubt'
p2489
I1872
sS'heritage'
p2490
I2458
sS'forward'
p2491
I408
sS'translate'
p2492
I1281
sS'scared'
p2493
I946
sS'files'
p2494
I2867
sS'mountains'
p2495
I2305
sS'himself'
p2496
I1396
sS'invite'
p2497
I2669
sS'pronounce'
p2498
I2330
sS'relaxed'
p2499
I1659
sS'boys'
p2500
I2080
sS'properly'
p2501
I2514
sS'link'
p2502
I2295
sS'alive'
p2503
I3057
sS'russian'
p2504
I1184
sS'episode'
p2505
I2434
sS'line'
p2506
I885
sS'junior'
p2507
I799
sS'raising'
p2508
I2332
sS'posted'
p2509
I2508
sS'fries'
p2510
I3182
sS'up'
p2511
I89
sS'us'
p2512
I168
sS'um'
p2513
I3021
sS'windows'
p2514
I2381
sS"'re"
p2515
I562
sS'uh'
p2516
I3376
sS'uk'
p2517
I1373
sS'sum'
p2518
I3350
sS'fried'
p2519
I1698
sS'similar'
p2520
I1220
sS'called'
p2521
I270
sS'bell'
p2522
I2797
sS'ordered'
p2523
I1719
sS'adults'
p2524
I2389
sS'stick'
p2525
I2540
sS'flow'
p2526
I2871
sS'chan'
p2527
I2409
sS'entrance'
p2528
I959
sS'single'
p2529
I1147
sS'chat'
p2530
I879
sS'thier'
p2531
I3363
sS'cafe'
p2532
I954
sS'rainy'
p2533
I581
sS'%'
p2534
I651
sS'rains'
p2535
I3285
sS'peace'
p2536
I1910
sS'application'
p2537
I1377
sS'nap'
p2538
I2012
sS'definitely'
p2539
I1617
sS'electrical'
p2540
I3155
sS'department'
p2541
I1234
sS'pandas'
p2542
I3259
sS'nice'
p2543
I180
sS'explaining'
p2544
I2861
sS'draw'
p2545
I1235
sS'elements'
p2546
I2852
sS'users'
p2547
I2194
sS'favourite'
p2548
I1781
sS'problems'
p2549
I565
sS'prepared'
p2550
I945
sS'helping'
p2551
I2279
sS'meaning'
p2552
I689
sS'smiled'
p2553
I2994
sS'reservation'
p2554
I3302
sS'formal'
p2555
I1992
sS'meals'
p2556
I1715
sS'structure'
p2557
I2742
sS'ago'
p2558
I213
sS'lane'
p2559
I3228
sS'land'
p2560
I3227
sS'e'
p2561
I540
sS'dvd'
p2562
I1206
sS'age'
p2563
I664
sS'required'
p2564
I2338
sS'youtube'
p2565
I1678
sS'walked'
p2566
I1109
sS'cooked'
p2567
I1544
sS'depth'
p2568
I2836
sS'carrying'
p2569
I2811
sS'enrolled'
p2570
I3159
sS'far'
p2571
I477
sS'fresh'
p2572
I1129
sS'2008'
p2573
I2384
sS'2009'
p2574
I1114
sS'requires'
p2575
I1916
sS'having'
p2576
I417
sS'once'
p2577
I405
sS'essay'
p2578
I1265
sS'stones'
p2579
I3342
sS'code'
p2580
I1769
sS'evidence'
p2581
I2633
sS'rabbit'
p2582
I2713
sS'belonged'
p2583
I2798
sS'results'
p2584
I1733
sS'enjoyable'
p2585
I1629
sS'windy'
p2586
I1943
sS'ga'
p2587
I3187
sS'go'
p2588
I65
sS'barbecue'
p2589
I2402
sS'seemed'
p2590
I628
sS'contacted'
p2591
I2827
sS'vietnamese'
p2592
I2196
sS'concerned'
p2593
I1337
sS'shanghai'
p2594
I2347
sS'young'
p2595
I523
sS'send'
p2596
I787
sS'languages'
p2597
I435
sS'helps'
p2598
I811
sS'dislike'
p2599
I3148
sS'include'
p2600
I2896
sS'friendly'
p2601
I1393
sS'sent'
p2602
I893
sS'garden'
p2603
I1071
sS'outside'
p2604
I579
sS'continues'
p2605
I3121
sS'kitty'
p2606
I1710
sS'wishes'
p2607
I1944
sS'facebook'
p2608
I1171
sS'romantic'
p2609
I2970
sS'telling'
p2610
I2749
sS'practicing'
p2611
I1727
sS'drinking'
p2612
I630
sS'continued'
p2613
I1471
sS'fukuoka'
p2614
I1993
sS'magic'
p2615
I2677
sS'meant'
p2616
I2478
sS'button'
p2617
I2807
sS'shock'
p2618
I2037
sS'michael'
p2619
I3246
sS'eve'
p2620
I1552
sS'fewer'
p2621
I2639
sS'try'
p2622
I176
sS'assignments'
p2623
I2788
sS'race'
p2624
I974
sS'challenge'
p2625
I1335
sS'solutions'
p2626
I3333
sS'someday'
p2627
I855
sS'smaller'
p2628
I2738
sS'crow'
p2629
I2102
sS'waking'
p2630
I3031
sS'jump'
p2631
I3220
sS'blowing'
p2632
I2592
sS'video'
p2633
I696
sS'traveling'
p2634
I1748
sS'picked'
p2635
I1724
sS'haiku'
p2636
I2452
sS'spaghetti'
p2637
I1668
sS'click'
p2638
I1971
sS'depression'
p2639
I2253
sS'universities'
p2640
I1522
sS'genpet'
p2641
I2878
sS'plays'
p2642
I2506
sS'business'
p2643
I351
sS'q'
p2644
I3284
sS'wallet'
p2645
I3383
sS'giving'
p2646
I1556
sS'fine'
p2647
I702
sS'cell'
p2648
I1379
sS'seconds'
p2649
I2980
sS'waiting'
p2650
I747
sS'indian'
p2651
I964
sS'capital'
p2652
I2085
sS';'
p2653
I211
sS'bird'
p2654
I2591
sS'exercise'
p2655
I825
sS'3d'
p2656
I1680
sS'body'
p2657
I524
sS'led'
p2658
I2293
sS'chose'
p2659
I1539
sS'degree'
p2660
I1475
sS'exchange'
p2661
I1020
sS'gathered'
p2662
I2647
sS'pushing'
p2663
I3283
sS'youngest'
p2664
I3036
sS'growing'
p2665
I1492
sS'objects'
p2666
I3254
sS'let'
p2667
I287
sS'sink'
p2668
I2993
sS'others'
p2669
I360
sS'sing'
p2670
I1057
sS'great'
p2671
I233
sS'didn'
p2672
I3144
sS'talent'
p2673
I1595
sS'receive'
p2674
I1448
sS'30'
p2675
I494
sS'leaving'
p2676
I1353
sS'engine'
p2677
I2432
sS'products'
p2678
I1306
sS'menu'
p2679
I2304
sS'opinion'
p2680
I611
sS'climb'
p2681
I2416
sS'makes'
p2682
I423
sS'maker'
p2683
I2135
sS'fulfill'
p2684
I2121
sS'named'
p2685
I854
sS'writer'
p2686
I2200
sS'apple'
p2687
I1463
sS'nearest'
p2688
I2488
sS'egypt'
p2689
I2850
sS'win'
p2690
I985
sS'manage'
p2691
I1572
sS'private'
p2692
I1410
sS'names'
p2693
I2011
sS'apply'
p2694
I1956
sS'chilly'
p2695
I3099
sS'singing'
p2696
I1278
sS'announced'
p2697
I2221
sS'standing'
p2698
I1223
sS'use'
p2699
I138
sS'from'
p2700
I52
sS'stream'
p2701
I3344
sS'usa'
p2702
I841
sS'&'
p2703
I506
sS'mid'
p2704
I2480
sS'chocolates'
p2705
I2814
sS'bush'
p2706
I2231
sS'next'
p2707
I162
sS'few'
p2708
I264
sS'camera'
p2709
I955
sS'examination'
p2710
I1125
sS'themselves'
p2711
I1316
sS'sort'
p2712
I1667
sS'pencil'
p2713
I3262
sS'majoring'
p2714
I2299
sS'started'
p2715
I228
sS'becomes'
p2716
I1759
sS'about'
p2717
I38
sS'sore'
p2718
I1666
sS'train'
p2719
I433
sS'ashamed'
p2720
I2073
sS'baby'
p2721
I582
sS'central'
p2722
I1970
sS'women'
p2723
I986
sS'customer'
p2724
I1428
sS'escaped'
p2725
I2436
sS'account'
p2726
I1155
sS'balls'
p2727
I2792
sS'animals'
p2728
I1327
sS'salad'
p2729
I2730
sS'f'
p2730
I1632
sS'this'
p2731
I24
sS'ride'
p2732
I1308
sS'sounded'
p2733
I2039
sS'anywhere'
p2734
I2071
sS'obvious'
p2735
I2692
sS'thin'
p2736
I2050
sS'of'
p2737
I12
sS'highly'
p2738
I3203
sS'meet'
p2739
I256
sS'institute'
p2740
I2667
sS'performed'
p2741
I3263
sS'control'
p2742
I1017
sS'beijing'
p2743
I2403
sS'plate'
p2744
I2322
sS'process'
p2745
I1444
sS'discussed'
p2746
I1980
sS'halloween'
p2747
I1348
sS'high'
p2748
I218
sS'professor'
p2749
I1579
sS'something'
p2750
I179
sS'wonderful'
p2751
I730
sS'tai'
p2752
I3357
sS'native'
p2753
I409
sS'hesitate'
p2754
I1890
sS'educational'
p2755
I2849
sS'united'
p2756
I1282
sS'memorize'
p2757
I2303
sS'sit'
p2758
I1279
sS'six'
p2759
I977
sS'located'
p2760
I1271
sS'forest'
p2761
I2119
sS'animal'
p2762
I1953
sS'instead'
p2763
I682
sS'struggled'
p2764
I3346
sS'comedy'
p2765
I3112
sS'nara'
p2766
I1405
sS'stock'
p2767
I2358
sS'profile'
p2768
I2512
sS'buildings'
p2769
I1853
sS'attend'
p2770
I1464
sS'farm'
p2771
I2636
sS'watch'
p2772
I340
sS'paintball'
p2773
I2497
sS'notebook'
p2774
I2309
sS'seldom'
p2775
I2982
sS'records'
p2776
I2960
sS'spelling'
p2777
I2537
sS'efficiently'
p2778
I3153
sS'realized'
p2779
I648
sS'concern'
p2780
I2607
sS'light'
p2781
I903
sS'lines'
p2782
I2133
sS'robot'
p2783
I2525
sS'sendai'
p2784
I2033
sS'courage'
p2785
I2246
sS'honestly'
p2786
I1641
sS'allow'
p2787
I2392
sS'swimming'
p2788
I839
sS'divided'
p2789
I3149
sS'breast'
p2790
I3083
sS'move'
p2791
I674
sS'including'
p2792
I936
sS'looks'
p2793
I627
sS'quake'
p2794
I2957
sS'mentioned'
p2795
I1795
sS'interpreter'
p2796
I3212
sS'earlier'
p2797
I1627
sS'perfect'
p2798
I889
sS'write'
p2799
I129
sS'la'
p2800
I3225
sS'chosen'
p2801
I2091
sS'housewife'
p2802
I2661
sS'kindergarten'
p2803
I1436
sS'willing'
p2804
I2198
sS'degrees'
p2805
I2423
sS'choose'
p2806
I846
sS'instruments'
p2807
I2668
sS'hobby'
p2808
I769
sS'holiday'
p2809
I374
sS'2011'
p2810
I1036
sS'<'
p2811
I629
sS'dad'
p2812
I1381
sS'designs'
p2813
I3141
sS'pure'
p2814
I2955
sS'murakami'
p2815
I2483
sS'flour'
p2816
I3173
sS'practice'
p2817
I431
sS'runs'
p2818
I2527
sS'sweets'
p2819
I1833
sS'cutting'
p2820
I2830
sS'snake'
p2821
I3331
sS'hands'
p2822
I1046
sS'front'
p2823
I644
sS'kindness'
p2824
I2468
sS'day'
p2825
I69
sS'articles'
p2826
I1196
sS'february'
p2827
I1486
sS'university'
p2828
I189
sS'truth'
p2829
I1085
sS'breeze'
p2830
I3084
sS'crossing'
p2831
I3127
sS'fm'
p2832
I3174
sS'shaking'
p2833
I3320
sS'emo'
p2834
I3158
sS'glasses'
p2835
I1888
sS'beginner'
p2836
I1851
sS'doing'
p2837
I311
sS'adventure'
p2838
I2212
sS'parties'
p2839
I2701
sS'product'
p2840
I2022
sS'related'
p2841
I1307
sS'society'
p2842
I835
sS'books'
p2843
I282
sS'our'
p2844
I102
sS'80'
p2845
I2205
sS'bay'
p2846
I3074
sS'sexual'
p2847
I3319
sS'special'
p2848
I552
sS'out'
p2849
I121
sS'octopus'
p2850
I2494
sS"'"
p2851
I101
sS'bag'
p2852
I989
sS'mate'
p2853
I2927
sS'messenger'
p2854
I2930
sS'lecture'
p2855
I965
sS'cause'
p2856
I1537
sS'math'
p2857
I996
sS'cartoons'
p2858
I3090
sS'afford'
p2859
I2213
sS'umbrella'
p2860
I2193
sS'ielts'
p2861
I2662
sS'dictionary'
p2862
I864
sS'spot'
p2863
I3337
sS'ipod'
p2864
I1894
sS'embassy'
p2865
I3156
sS'attending'
p2866
I2398
sS'completely'
p2867
I1016
sS'surely'
p2868
I2180
sS'york'
p2869
I897
sS'coluche'
p2870
I2822
sS'compositions'
p2871
I2604
sS'scary'
p2872
I1277
sS'yard'
p2873
I2571
sS'her'
p2874
I75
sS'g'
p2875
I2272
sS'phrases'
p2876
I1506
sS'could'
p2877
I81
sS'times'
p2878
I377
sS'conversation'
p2879
I584
sS'4th'
p2880
I2068
sS'pudding'
p2881
I2515
sS'hence'
p2882
I3202
sS'uniqlo'
p2883
I3024
sS'museum'
p2884
I2485
sS'south'
p2885
I1004
sS'mad'
p2886
I2926
sS'powerful'
p2887
I2511
sS'scene'
p2888
I1145
sS'jesus'
p2889
I2904
sS'embarrassed'
p2890
I2430
sS'improving'
p2891
I2284
sS'submit'
p2892
I2178
sS'owner'
p2893
I1504
sS'reached'
p2894
I1915
sS'quality'
p2895
I1811
sS'ancient'
p2896
I1462
sS'strict'
p2897
I2542
sS'festival'
p2898
I701
sS'journals'
p2899
I1707
sS'accent'
p2900
I1194
sS'system'
p2901
I527
sS'relations'
p2902
I2963
sS'priority'
p2903
I2161
sS'their'
p2904
I109
sS'attack'
p2905
I2397
sS'perfectly'
p2906
I1443
sS'final'
p2907
I1172
sS'painful'
p2908
I1806
sS'stomach'
p2909
I1315
sS'stars'
p2910
I2042
sS'academy'
p2911
I1840
sS'completed'
p2912
I2419
sS'exactly'
p2913
I1124
sS'motorcycle'
p2914
I2686
sS'taiwanese'
p2915
I3007
sS'regards'
p2916
I2720
sS'branches'
p2917
I2596
sS'july'
p2918
I1074
sS'herself'
p2919
I2891
sS'neck'
p2920
I2489
sS'ipad'
p2921
I1705
sS'loved'
p2922
I967
sS'colleagues'
p2923
I1380
sS'boring'
p2924
I750
sS'bother'
p2925
I3081
sS'lion'
p2926
I3235
sS'bed'
p2927
I428
sS'claim'
p2928
I3103
sS'patients'
p2929
I2319
sS'loves'
p2930
I2296
sS'lover'
p2931
I2676
sS'visited'
p2932
I697
sS'bet'
p2933
I2079
sS'clip'
p2934
I2817
sS'comfortable'
p2935
I918
sS'tonight'
p2936
I694
sS'gentle'
p2937
I1995
sS'have'
p2938
I19
sS'need'
p2939
I170
sS'apparently'
p2940
I2784
sS'clearly'
p2941
I1767
sS'sings'
p2942
I2534
sS'afraid'
p2943
I662
sS'angle'
p2944
I3061
sS'dishes'
p2945
I992
sS'min'
p2946
I2933
sS'studying'
p2947
I203
sS'able'
p2948
I249
sS'bakery'
p2949
I2400
sS'chiba'
p2950
I3097
sS'instance'
p2951
I1563
sS'relatives'
p2952
I1732
sS'which'
p2953
I90
sS'korean'
p2954
I450
sS'='
p2955
I286
sS'lecturer'
p2956
I2292
sS'lectures'
p2957
I3233
sS'unless'
p2958
I2763
sS'vocaloid'
p2959
I3029
sS'who'
p2960
I86
sS'visa'
p2961
I2377
sS'eight'
p2962
I2110
sS'device'
p2963
I2617
sS'sophisticated'
p2964
I3334
sS'medal'
p2965
I2479
sS'class'
p2966
I187
sS'cellphone'
p2967
I2236
sS'url'
p2968
I362
sS'gather'
p2969
I2646
sS'stronger'
p2970
I1592
sS'disease'
p2971
I2620
sS'face'
p2972
I496
sS'looked'
p2973
I533
sS'construction'
p2974
I2422
sS'movie'
p2975
I194
sS'painting'
p2976
I1029
sS'fact'
p2977
I484
sS'gain'
p2978
I1297
sS'son'
p2979
I329
sS'impression'
p2980
I1434
sS'atmosphere'
p2981
I1329
sS'chances'
p2982
I1766
sS'text'
p2983
I1191
sS'agreed'
p2984
I2578
sS'supported'
p2985
I3355
sS'anyway'
p2986
I298
sS'bring'
p2987
I821
sS'planning'
p2988
I890
sS'chicken'
p2989
I1200
sS'pleased'
p2990
I1577
sS'decade'
p2991
I3134
sS'staff'
p2992
I837
sS'partners'
p2993
I2501
sS'envy'
p2994
I2631
sS'highest'
p2995
I2001
sS'based'
p2996
I1331
sS'knowledge'
p2997
I1049
sS'('
p2998
I43
sS'should'
p2999
I116
sS'jam'
p3000
I2903
sS'employee'
p3001
I2853
sS'riding'
p3002
I2166
sS'piano'
p3003
I1244
sS'goro'
p3004
I1997
sS'local'
p3005
I1050
sS'achieve'
p3006
I1230
sS'regularly'
p3007
I2164
sS'cube'
p3008
I2614
sS'handle'
p3009
I2126
sS'listened'
p3010
I1356
sS'means'
p3011
I401
sS'beat'
p3012
I3075
sS'familiar'
p3013
I1485
sS'coworker'
p3014
I2247
sS'lucky'
p3015
I969
sS'bear'
p3016
I1465
sS'likely'
p3017
I2132
sS'yogurt'
p3018
I2202
sS'ones'
p3019
I943
sS'words'
p3020
I257
sS'kong'
p3021
I1712
sS'routine'
p3022
I2729
sS'areas'
p3023
I1328
sS'ended'
p3024
I1295
sS'shy'
p3025
I1822
sS'married'
p3026
I1052
sS'teams'
p3027
I1936
sS'influenced'
p3028
I3209
sS'stuff'
p3029
I1032
sS'she'
p3030
I68
sS'wish'
p3031
I372
sS'fixed'
p3032
I2641
sS'view'
p3033
I1064
sS'knowing'
p3034
I1896
sS'btw'
p3035
I2230
sS'j'
p3036
I3215
sS'exists'
p3037
I2265
sS'national'
p3038
I740
sS'humans'
p3039
I2892
sS'we'
p3040
I29
sS'computer'
p3041
I452
sS'terms'
p3042
I1745
sS'closer'
p3043
I2602
sS'interview'
p3044
I852
sS'reform'
p3045
I3291
sS'nuclear'
p3046
I1140
sS'nightmare'
p3047
I2689
sS'tend'
p3048
I1454
sS'genius'
p3049
I1994
sS'written'
p3050
I537
sS':'
p3051
I54
sS'closed'
p3052
I1163
sS'horrible'
p3053
I1787
sS'progress'
p3054
I1730
sS'neither'
p3055
I2015
sS'frustrated'
p3056
I2644
sS'email'
p3057
I1383
sS'midnight'
p3058
I1649
sS'bought'
p3059
I309
sS'exam'
p3060
I363
sS'importance'
p3061
I2664
sS'joy'
p3062
I3218
sS'00pm'
p3063
I2772
sS'job'
p3064
I161
sS'merry'
p3065
I1716
sS'police'
p3066
I832
sS'precious'
p3067
I1729
sS'monitor'
p3068
I2936
sS'temples'
p3069
I3360
sS'drum'
p3070
I2257
sS'career'
p3071
I1468
sS'joke'
p3072
I1566
sS'taking'
p3073
I544
sS'minds'
p3074
I2681
sS'trips'
p3075
I2373
sS'etc'
p3076
I619
sS'admit'
p3077
I2069
sS'passing'
p3078
I1909
sS'safely'
p3079
I2976
sS'journey'
p3080
I1789
sS'otherwise'
p3081
I2946
sS'comment'
p3082
I1287
sS'gorgeous'
p3083
I1996
sS'relevant'
p3084
I2965
sS'co'
p3085
I1233
sS'cm'
p3086
I3108
sS'toilet'
p3087
I2752
sS'wall'
p3088
I2768
sS'ca'
p3089
I132
sS'walk'
p3090
I567
sS'laugh'
p3091
I1499
sS'cousin'
p3092
I1613
sS'fukushima'
p3093
I2120
sS'table'
p3094
I1151
sS'kamakura'
p3095
I2908
sS'quit'
p3096
I1512
sS'addition'
p3097
I671
sS'decent'
p3098
I3135
sS'taste'
p3099
I948
sS'drank'
p3100
I1122
sS'slowly'
p3101
I2176
sS'treat'
p3102
I1673
sS'ah'
p3103
I1606
sS'proposal'
p3104
I3276
sS'waste'
p3105
I1675
sS'bbq'
p3106
I2078
sS'>'
p3107
I554
sS'suggested'
p3108
I2744
sS'shoulders'
p3109
I2735
sS'league'
p3110
I2131
sS'painted'
p3111
I2699
sS'am'
p3112
I63
sS'protect'
p3113
I2025
sS'al'
p3114
I2780
sS'hmm'
p3115
I1640
sS'miku'
p3116
I1360
sS'tense'
p3117
I1455
sS'covered'
p3118
I1472
sS'smoking'
p3119
I1367
sS'an'
p3120
I70
sS'present'
p3121
I658
sS'volunteer'
p3122
I2061
sS'novel'
p3123
I869
sS'unlike'
p3124
I2563
sS'imagination'
p3125
I2663
sS'crowds'
p3126
I2103
sS'harder'
p3127
I902
sS'value'
p3128
I3026
sS'2010'
p3129
I1154
sS'will'
p3130
I45
sS'hahaha'
p3131
I1558
sS'wild'
p3132
I3033
sS'~'
p3133
I142
sS'supply'
p3134
I3354
sS'koreans'
p3135
I2291
sS've'
p3136
I2565
sS'almost'
p3137
I306
sS'thus'
p3138
I1371
sS'site'
p3139
I324
sS'surface'
p3140
I2181
sS'helped'
p3141
I1048
sS'vs'
p3142
I2379
sS'optimistic'
p3143
I2944
sS'politics'
p3144
I2159
sS'partner'
p3145
I1141
sS'arabic'
p3146
I2395
sS')'
p3147
I34
sS'began'
p3148
I819
sS'campus'
p3149
I2084
sS'member'
p3150
I923
sS'strange'
p3151
I857
sS'speaker'
p3152
I947
sS'largest'
p3153
I3229
sS'party'
p3154
I391
sS'android'
p3155
I1842
sS'gets'
p3156
I1072
sS'difficult'
p3157
I210
sS'injured'
p3158
I2898
sS'ball'
p3159
I1231
sS'novels'
p3160
I1361
sS'flesh'
p3161
I2642
sS'drink'
p3162
I479
sS'upon'
p3163
I3025
sS'effect'
p3164
I1340
sS'proficiency'
p3165
I2023
sS'authors'
p3166
I3067
sS'student'
p3167
I288
sS'frequently'
p3168
I1785
sS'expand'
p3169
I2438
sS'off'
p3170
I307
sS'center'
p3171
I779
sS'mention'
p3172
I2140
sS'i'
p3173
I2
sS'tutor'
p3174
I3373
sS'colour'
p3175
I2239
sS'variety'
p3176
I2059
sS'well'
p3177
I127
sS'thought'
p3178
I224
sS'command'
p3179
I2823
sS'english'
p3180
I26
sS'firstly'
p3181
I2115
sS'position'
p3182
I1276
sS'drawing'
p3183
I1625
sS'usual'
p3184
I842
sS'stores'
p3185
I1149
sS'cried'
p3186
I2100
sS'less'
p3187
I772
sS'cakes'
p3188
I1535
sS'gun'
p3189
I2655
sS'cries'
p3190
I3126
sS'clinic'
p3191
I3105
sS'mistakes'
p3192
I578
sS'rooms'
p3193
I1583
sS'seats'
p3194
I2530
sS'skill'
p3195
I613
sS'lettuce'
p3196
I2920
sS'happiness'
p3197
I1237
sS'web'
p3198
I817
sS'bicycles'
p3199
I3077
sS'30am'
p3200
I3044
sS'drunk'
p3201
I1626
sS'sky'
p3202
I1058
sS'lake'
p3203
I2674
sS'realize'
p3204
I1413
sS'drew'
p3205
I2845
sS'reasons'
p3206
I743
sS'add'
p3207
I1156
sS'other'
p3208
I103
sS'attractive'
p3209
I1958
sS'wet'
p3210
I1677
sS'usage'
p3211
I2376
sS'tax'
p3212
I2747
sS'advanced'
p3213
I2779
sS'earthquakes'
p3214
I2259
sS'smart'
p3215
I1106
sS'tests'
p3216
I1370
sS'government'
p3217
I767
sS'checking'
p3218
I2410
sS'desu'
p3219
I2616
sS'five'
p3220
I563
sS'know'
p3221
I71
sS'burden'
p3222
I3088
sS'desk'
p3223
I1477
sS'immediately'
p3224
I1703
sS'height'
p3225
I2658
sS'loss'
p3226
I2134
sS'necessary'
p3227
I998
sS'like'
p3228
I40
sS'lost'
p3229
I458
sS'sofa'
p3230
I2997
sS'lose'
p3231
I705
sS'become'
p3232
I319
sS'works'
p3233
I731
sS'soft'
p3234
I1826
sS'page'
p3235
I1575
sS'regardless'
p3236
I3293
sS'italian'
p3237
I1706
sS'gaining'
p3238
I2877
sS'shed'
p3239
I3322
sS'because'
p3240
I46
sS'smoothly'
p3241
I1924
sS'twitter'
p3242
I873
sS'village'
p3243
I2567
sS'thief'
p3244
I2557
sS'library'
p3245
I724
sS'mosquitoes'
p3246
I2684
sS'hair'
p3247
I427
sS'preposition'
p3248
I3271
sS'growth'
p3249
I2450
sS'warmer'
p3250
I2062
sS'proper'
p3251
I2024
sS'home'
p3252
I148
sS'peter'
p3253
I2704
sS'employment'
p3254
I2854
sS'happens'
p3255
I1701
sS'diaries'
p3256
I2107
sS'lead'
p3257
I1898
sS'rubik'
p3258
I3312
sS'literally'
p3259
I2922
sS'avoid'
p3260
I1960
sS'does'
p3261
I216
sS'passion'
p3262
I2153
sS'taiko'
p3263
I3358
sS'esl'
p3264
I3162
sS'leader'
p3265
I3232
sS'?'
p3266
I30
sS'noise'
p3267
I1801
sS'schedule'
p3268
I1001
sS'journal'
p3269
I449
sS'pressure'
p3270
I2020
sS'host'
p3271
I1100
sS'although'
p3272
I314
sS'described'
p3273
I2424
sS'r'
p3274
I1914
sS'repair'
p3275
I3298
sS'noisy'
p3276
I2308
sS'sister'
p3277
I503
sS'rare'
p3278
I2163
sS'asks'
p3279
I2583
sS'getting'
p3280
I369
sS'universe'
p3281
I1598
sS'gundam'
p3282
I2656
sS'basis'
p3283
I2793
sS'recognized'
p3284
I2334
sS'15th'
p3285
I2773
sS'sweat'
p3286
I1933
sS'tongue'
p3287
I1521
sS'introduced'
p3288
I1496
sS'software'
p3289
I1031
sS'own'
p3290
I424
sS'letters'
p3291
I2009
sS'keeps'
p3292
I2909
sS'creativity'
p3293
I2829
sS'socks'
p3294
I3332
sS'cocoa'
p3295
I3110
sS'weather'
p3296
I426
sS'promise'
p3297
I2513
sS'tiny'
p3298
I2369
sS'female'
p3299
I1882
sS'artists'
p3300
I2787
sS'roads'
p3301
I1734
sS'quickly'
p3302
I833
sS'hehe'
p3303
I2127
sS'whom'
p3304
I1524
sS'transfer'
p3305
I3013
sS'vegetables'
p3306
I1283
sS'*'
p3307
I169
sS'noticed'
p3308
I942
sS'overtime'
p3309
I2149
sS'newspapers'
p3310
I2687
sS'slang'
p3311
I3330
sS'biggest'
p3312
I1466
sS'rode'
p3313
I2167
sS'naturally'
p3314
I2938
sS'buy'
p3315
I232
sS'north'
p3316
I971
sS'stadium'
p3317
I2356
sS'chatting'
p3318
I1040
sS'exchanged'
p3319
I2858
sS'bus'
p3320
I720
sS'brand'
p3321
I1762
sS'but'
p3322
I21
sS'delivery'
p3323
I2252
sS'reminds'
p3324
I2336
sS'hi'
p3325
I261
sS'goals'
p3326
I1347
sS'hm'
p3327
I2460
sS'ha'
p3328
I1394
sS'eat'
p3329
I276
sS'he'
p3330
I47
sS'count'
p3331
I2096
sS'made'
p3332
I167
sS'places'
p3333
I675
sS'noon'
p3334
I2146
sS'whether'
p3335
I616
sS'dangerous'
p3336
I1290
sS'official'
p3337
I1501
sS'signed'
p3338
I2348
sS'record'
p3339
I1815
sS'below'
p3340
I990
sS'stories'
p3341
I980
sS'empty'
p3342
I2262
sS'cake'
p3343
I1038
sS'problem'
p3344
I397
sS'piece'
p3345
I1364
sS'minutes'
p3346
I489
sS'display'
p3347
I2621
sS'begun'
p3348
I2795
sS'advertisement'
p3349
I3053
sS'recognize'
p3350
I2959
sS'contribute'
p3351
I1773
sS'pie'
p3352
I3266
sS'rome'
p3353
I2971
sS'barcelona'
p3354
I3073
sS'education'
p3355
I934
sS'subtitles'
p3356
I2361
sS'happen'
p3357
I1047
sS'functions'
p3358
I3184
sS'compared'
p3359
I1120
sS"'ll"
p3360
I134
sS'contest'
p3361
I1772
sS'45'
p3362
I3046
sS'percent'
p3363
I2947
sS'detail'
p3364
I2254
sS'40'
p3365
I1602
sS'lately'
p3366
I883
sS'book'
p3367
I243
sS'details'
p3368
I1478
sS'sick'
p3369
I1003
sS'toefl'
p3370
I1596
sS'haruki'
p3371
I2454
sS'conclusion'
p3372
I1770
sS'album'
p3373
I2218
sS'xxx'
p3374
I3035
sS'kinds'
p3375
I737
sS'monday'
p3376
I813
sS'writting'
p3377
I2201
sS'june'
p3378
I1214
sS'jung'
p3379
I3221
sS'stay'
p3380
I370
sS'chance'
p3381
I538
sS'kinda'
p3382
I2910
sS'rural'
p3383
I2341
sS'gap'
p3384
I3188
sS'friends'
p3385
I84
sS'oral'
p3386
I1804
sS'blogs'
p3387
I2228
sS'entertainment'
p3388
I3160
sS'kanji'
p3389
I3222
sS'lasted'
p3390
I2473
sS'rule'
p3391
I2168
sS'searched'
p3392
I2979
sS'lives'
p3393
I704
sS'baked'
p3394
I3071
s.