(dp0
I1
S'.'
p1
sI2
S'i'
p2
sI3
S','
p3
sI4
S'the'
p4
sI5
S'to'
p5
sI6
S'a'
p6
sI7
S'and'
p7
sI8
S'my'
p8
sI9
S'is'
p9
sI10
S'in'
p10
sI11
S'it'
p11
sI12
S'of'
p12
sI13
S'!'
p13
sI14
S'for'
p14
sI15
S'was'
p15
sI16
S'that'
p16
sI17
S'-'
p17
sI18
S'``'
p18
sI19
S'have'
p19
sI20
S'you'
p20
sI21
S'but'
p21
sI22
S'so'
p22
sI23
S"n't"
p23
sI24
S'this'
p24
sI25
S"'s"
p25
sI26
S'english'
p26
sI27
S'me'
p27
sI28
S'do'
p28
sI29
S'we'
p29
sI30
S'?'
p30
sI31
S'with'
p31
sI32
S'on'
p32
sI33
S'are'
p33
sI34
S')'
p34
sI35
S"'m"
p35
sI36
S'not'
p36
sI37
S'at'
p37
sI38
S'about'
p38
sI39
S'very'
p39
sI40
S'like'
p40
sI41
S'time'
p41
sI42
S'be'
p42
sI43
S'('
p43
sI44
S'can'
p44
sI45
S'will'
p45
sI46
S'because'
p46
sI47
S'he'
p47
sI48
S'there'
p48
sI49
S'today'
p49
sI50
S'as'
p50
sI51
S'when'
p51
sI52
S'from'
p52
sI53
S'they'
p53
sI54
S':'
p54
sI55
S'japanese'
p55
sI56
S'people'
p56
sI57
S'good'
p57
sI58
S'one'
p58
sI59
S'if'
p59
sI60
S'had'
p60
sI61
S'what'
p61
sI62
S'some'
p62
sI63
S'am'
p63
sI64
S'want'
p64
sI65
S'go'
p65
sI66
S'by'
p66
sI67
S'think'
p67
sI68
S'she'
p68
sI69
S'day'
p69
sI70
S'an'
p70
sI71
S'know'
p71
sI72
S'now'
p72
sI73
S'or'
p73
sI74
S'more'
p74
sI75
S'her'
p75
sI76
S'first'
p76
sI77
S'them'
p77
sI78
S'many'
p78
sI79
S'all'
p79
sI80
S'went'
p80
sI81
S'could'
p81
sI82
S'japan'
p82
sI83
S'has'
p83
sI84
S'friends'
p84
sI85
S'really'
p85
sI86
S'who'
p86
sI87
S'how'
p87
sI88
S'after'
p88
sI89
S'up'
p89
sI90
S'which'
p90
sI91
S'new'
p91
sI92
S'just'
p92
sI93
S'work'
p93
sI94
S'been'
p94
sI95
S'his'
p95
sI96
S'were'
p96
sI97
S'would'
p97
sI98
S'did'
p98
sI99
S'school'
p99
sI100
S'get'
p100
sI101
S"'"
p101
sI102
S'our'
p102
sI103
S'other'
p103
sI104
S'also'
p104
sI105
S'make'
p105
sI106
S'your'
p106
sI107
S'study'
p107
sI108
S'going'
p108
sI109
S'their'
p109
sI110
S'year'
p110
sI111
S'lot'
p111
sI112
S'friend'
p112
sI113
S'only'
p113
sI114
S'last'
p114
sI115
S'much'
p115
sI116
S'should'
p116
sI117
S'see'
p117
sI118
S'feel'
p118
sI119
S'too'
p119
sI120
S'no'
p120
sI121
S'out'
p121
sI122
S'then'
p122
sI123
S'here'
p123
sI124
S'days'
p124
sI125
S'yesterday'
p125
sI126
S'than'
p126
sI127
S'well'
p127
sI128
S'^'
p128
sI129
S'write'
p129
sI130
S'long'
p130
sI131
S'way'
p131
sI132
S'ca'
p132
sI133
S'got'
p133
sI134
S"'ll"
p134
sI135
S'hope'
p135
sI136
S'years'
p136
sI137
S'even'
p137
sI138
S'use'
p138
sI139
S"'ve"
p139
sI140
S'please'
p140
sI141
S'said'
p141
sI142
S'~'
p142
sI143
S'two'
p143
sI144
S'him'
p144
sI145
S'take'
p145
sI146
S'why'
p146
sI147
S'help'
p147
sI148
S'home'
p148
sI149
S'hard'
p149
sI150
S'always'
p150
sI151
S'back'
p151
sI152
S'things'
p152
sI153
S'happy'
p153
sI154
S'learn'
p154
sI155
S'most'
p155
sI156
S'read'
p156
sI157
S'little'
p157
sI158
S'love'
p158
sI159
S'since'
p159
sI160
S'life'
p160
sI161
S'job'
p161
sI162
S'next'
p162
sI163
S'say'
p163
sI164
S'before'
p164
sI165
S'diary'
p165
sI166
S'/'
p166
sI167
S'made'
p167
sI168
S'us'
p168
sI169
S'*'
p169
sI170
S'need'
p170
sI171
S'these'
p171
sI172
S'again'
p172
sI173
S'still'
p173
sI174
S'every'
p174
sI175
S'_'
p175
sI176
S'try'
p176
sI177
S'however'
p177
sI178
S'old'
p178
sI179
S'something'
p179
sI180
S'nice'
p180
sI181
S'reading'
p181
sI182
S'writing'
p182
sI183
S'language'
p183
sI184
S'8'
p184
sI185
S'any'
p185
sI186
S'night'
p186
sI187
S'class'
p187
sI188
S'while'
p188
sI189
S'university'
p189
sI190
S'speak'
p190
sI191
S'morning'
p191
sI192
S'learning'
p192
sI193
S'house'
p193
sI194
S'movie'
p194
sI195
S'understand'
p195
sI196
S'myself'
p196
sI197
S'world'
p197
sI198
S'never'
p198
sI199
S'though'
p199
sI200
S'live'
p200
sI201
S'such'
p201
sI202
S'found'
p202
sI203
S'studying'
p203
sI204
S'2'
p204
sI205
S'thank'
p205
sI206
S'come'
p206
sI207
S'tomorrow'
p207
sI208
S'better'
p208
sI209
S'talk'
p209
sI210
S'difficult'
p210
sI211
S';'
p211
sI212
S'find'
p212
sI213
S'ago'
p213
sI214
S'week'
p214
sI215
S'best'
p215
sI216
S'does'
p216
sI217
S'each'
p217
sI218
S'high'
p218
sI219
S'sometimes'
p219
sI220
S'music'
p220
sI221
S'3'
p221
sI222
S'lang'
p222
sI223
S'around'
p223
sI224
S'thought'
p224
sI225
S'teacher'
p225
sI226
S'took'
p226
sI227
S'name'
p227
sI228
S'started'
p228
sI229
S'bad'
p229
sI230
S'came'
p230
sI231
S'may'
p231
sI232
S'buy'
p232
sI233
S'great'
p233
sI234
S'hello'
p234
sI235
S'kind'
p235
sI236
S'over'
p236
sI237
S'tell'
p237
sI238
S'family'
p238
sI239
S'same'
p239
sI240
S'used'
p240
sI241
S'company'
p241
sI242
S'correct'
p242
sI243
S'book'
p243
sI244
S'person'
p244
sI245
S'everyone'
p245
sI246
S'improve'
p246
sI247
S'students'
p247
sI248
S'1'
p248
sI249
S'able'
p249
sI250
S'working'
p250
sI251
S'cold'
p251
sI252
S'actually'
p252
sI253
S'big'
p253
sI254
S'different'
p254
sI255
S'into'
p255
sI256
S'meet'
p256
sI257
S'words'
p257
sI258
S'interesting'
p258
sI259
S'place'
p259
sI260
S'summer'
p260
sI261
S'hi'
p261
sI262
S'recently'
p262
sI263
S'keep'
p263
sI264
S'few'
p264
sI265
S'give'
p265
sI266
S'right'
p266
sI267
S'tokyo'
p267
sI268
S'must'
p268
sI269
S'soon'
p269
sI270
S'called'
p270
sI271
S'food'
p271
sI272
S'wanted'
p272
sI273
S'foreign'
p273
sI274
S'thing'
p274
sI275
S'felt'
p275
sI276
S'eat'
p276
sI277
S'important'
p277
sI278
S'maybe'
p278
sI279
S'looking'
p279
sI280
S'mother'
p280
sI281
S'three'
p281
sI282
S'books'
p282
sI283
S'country'
p283
sI284
S'money'
p284
sI285
S'thanks'
p285
sI286
S'='
p286
sI287
S'let'
p287
sI288
S'student'
p288
sI289
S'enjoy'
p289
sI290
S'course'
p290
sI291
S'busy'
p291
sI292
S'someone'
p292
sI293
S'during'
p293
sI294
S'man'
p294
sI295
S'told'
p295
sI296
S'often'
p296
sI297
S'part'
p297
sI298
S'anyway'
p298
sI299
S'decided'
p299
sI300
S'game'
p300
sI301
S'where'
p301
sI302
S'beautiful'
p302
sI303
S'play'
p303
sI304
S'sleep'
p304
sI305
S'test'
p305
sI306
S'almost'
p306
sI307
S'off'
p307
sI308
S'4'
p308
sI309
S'bought'
p309
sI310
S'city'
p310
sI311
S'doing'
p311
sI312
S'tired'
p312
sI313
S'usually'
p313
sI314
S'although'
p314
sI315
S'asked'
p315
sI316
S'down'
p316
sI317
S'saw'
p317
sI318
S'another'
p318
sI319
S'become'
p319
sI320
S'chinese'
p320
sI321
S'using'
p321
sI322
S'without'
p322
sI323
S'end'
p323
sI324
S'site'
p324
sI325
S'heard'
p325
sI326
S'trip'
p326
sI327
S'might'
p327
sI328
S'reason'
p328
sI329
S'son'
p329
sI330
S'month'
p330
sI331
S'story'
p331
sI332
S'speaking'
p332
sI333
S'especially'
p333
sI334
S'room'
p334
sI335
S'hours'
p335
sI336
S'through'
p336
sI337
S"'d"
p337
sI338
S'fun'
p338
sI339
S'met'
p339
sI340
S'watch'
p340
sI341
S'favorite'
p341
sI342
S'its'
p342
sI343
S'second'
p343
sI344
S'those'
p344
sI345
S'until'
p345
sI346
S'children'
p346
sI347
S'start'
p347
sI348
S'countries'
p348
sI349
S'everyday'
p349
sI350
S'5'
p350
sI351
S'business'
p351
sI352
S'enough'
p352
sI353
S'thinking'
p353
sI354
S'watched'
p354
sI355
S'between'
p355
sI356
S'korea'
p356
sI357
S'car'
p357
sI358
S'entry'
p358
sI359
S'parents'
p359
sI360
S'others'
p360
sI361
S'example'
p361
sI362
S'url'
p362
sI363
S'exam'
p363
sI364
S'famous'
p364
sI365
S'hot'
p365
sI366
S'anything'
p366
sI367
S'believe'
p367
sI368
S'bit'
p368
sI369
S'getting'
p369
sI370
S'stay'
p370
sI371
S'american'
p371
sI372
S'wish'
p372
sI373
S'future'
p373
sI374
S'holiday'
p374
sI375
S'tv'
p375
sI376
S'water'
p376
sI377
S'times'
p377
sI378
S'watching'
p378
sI379
S'ate'
p379
sI380
S'interested'
p380
sI381
S'office'
p381
sI382
S'sure'
p382
sI383
S'10'
p383
sI384
S'already'
p384
sI385
S'girl'
p385
sI386
S't'
p386
sI387
S'free'
p387
sI388
S'months'
p388
sI389
S'change'
p389
sI390
S'news'
p390
sI391
S'party'
p391
sI392
S'easy'
p392
sI393
S'small'
p393
sI394
S'tried'
p394
sI395
S'experience'
p395
sI396
S'sad'
p396
sI397
S'problem'
p397
sI398
S's'
p398
sI399
S'being'
p399
sI400
S'look'
p400
sI401
S'means'
p401
sI402
S'seems'
p402
sI403
S'skills'
p403
sI404
S'coming'
p404
sI405
S'once'
p405
sI406
S'put'
p406
sI407
S'teach'
p407
sI408
S'forward'
p408
sI409
S'native'
p409
sI410
S'dinner'
p410
sI411
S'listening'
p411
sI412
S'mind'
p412
sI413
S'playing'
p413
sI414
S'`'
p414
sI415
S'enjoyed'
p415
sI416
S'weekend'
p416
sI417
S'having'
p417
sI418
S'nothing'
p418
sI419
S'college'
p419
sI420
S'listen'
p420
sI421
S'father'
p421
sI422
S'lunch'
p422
sI423
S'makes'
p423
sI424
S'own'
p424
sI425
S'show'
p425
sI426
S'weather'
p426
sI427
S'hair'
p427
sI428
S'bed'
p428
sI429
S'christmas'
p429
sI430
S'finally'
p430
sI431
S'practice'
p431
sI432
S'birthday'
p432
sI433
S'train'
p433
sI434
S'early'
p434
sI435
S'languages'
p435
sI436
S'living'
p436
sI437
S'website'
p437
sI438
S'yet'
p438
sI439
S'answer'
p439
sI440
S'making'
p440
sI441
S'abroad'
p441
sI442
S'internet'
p442
sI443
S'mean'
p443
sI444
S'sentences'
p444
sI445
S'visit'
p445
sI446
S'both'
p446
sI447
S'care'
p447
sI448
S'idea'
p448
sI449
S'journal'
p449
sI450
S'korean'
p450
sI451
S'shop'
p451
sI452
S'computer'
p452
sI453
S'funny'
p453
sI454
S'left'
p454
sI455
S'talking'
p455
sI456
S'together'
p456
sI457
S'town'
p457
sI458
S'lost'
p458
sI459
S'near'
p459
sI460
S'season'
p460
sI461
S'tea'
p461
sI462
S'vacation'
p462
sI463
S'dream'
p463
sI464
S'earthquake'
p464
sI465
S'question'
p465
sI466
S'wife'
p466
sI467
S'6'
p467
sI468
S'call'
p468
sI469
S'd'
p469
sI470
S'culture'
p470
sI471
S'everything'
p471
sI472
S'm'
p472
sI473
S'plan'
p473
sI474
S'talked'
p474
sI475
S'ask'
p475
sI476
S'club'
p476
sI477
S'far'
p477
sI478
S'happened'
p478
sI479
S'drink'
p479
sI480
S'oh'
p480
sI481
S'possible'
p481
sI482
S'husband'
p482
sI483
S'spend'
p483
sI484
S'fact'
p484
sI485
S'later'
p485
sI486
S'shopping'
p486
sI487
S'clothes'
p487
sI488
S'meeting'
p488
sI489
S'minutes'
p489
sI490
S'restaurant'
p490
sI491
S'situation'
p491
sI492
S'song'
p492
sI493
S'wanna'
p493
sI494
S'30'
p494
sI495
S'article'
p495
sI496
S'face'
p496
sI497
S'played'
p497
sI498
S'poor'
p498
sI499
S'seen'
p499
sI500
S'sorry'
p500
sI501
S'gave'
p501
sI502
S'late'
p502
sI503
S'sister'
p503
sI504
S'strong'
p504
sI505
S'wrote'
p505
sI506
S'&'
p506
sI507
S'child'
p507
sI508
S'ever'
p508
sI509
S'finished'
p509
sI510
S'order'
p510
sI511
S'snow'
p511
sI512
S'surprised'
p512
sI513
S'woman'
p513
sI514
S'became'
p514
sI515
S'check'
p515
sI516
S'feeling'
p516
sI517
S'information'
p517
sI518
S'run'
p518
sI519
S'several'
p519
sI520
S'short'
p520
sI521
S'team'
p521
sI522
S'wrong'
p522
sI523
S'young'
p523
sI524
S'body'
p524
sI525
S'half'
p525
sI526
S'quite'
p526
sI527
S'system'
p527
sI528
S'away'
p528
sI529
S'daughter'
p529
sI530
S'haha'
p530
sI531
S'learned'
p531
sI532
S'leave'
p532
sI533
S'looked'
p533
sI534
S'popular'
p534
sI535
S'stop'
p535
sI536
S'therefore'
p536
sI537
S'written'
p537
sI538
S'chance'
p538
sI539
S'china'
p539
sI540
S'e'
p540
sI541
S'least'
p541
sI542
S'phone'
p542
sI543
S'studied'
p543
sI544
S'taking'
p544
sI545
S'u'
p545
sI546
S'worked'
p546
sI547
S'lesson'
p547
sI548
S'movies'
p548
sI549
S'past'
p549
sI550
S'remember'
p550
sI551
S'skype'
p551
sI552
S'special'
p552
sI553
S'spring'
p553
sI554
S'>'
p554
sI555
S']'
p555
sI556
S'full'
p556
sI557
S'guess'
p557
sI558
S'ok'
p558
sI559
S'passed'
p559
sI560
S'wo'
p560
sI561
S'word'
p561
sI562
S"'re"
p562
sI563
S'five'
p563
sI564
S'hand'
p564
sI565
S'problems'
p565
sI566
S'various'
p566
sI567
S'walk'
p567
sI568
S'['
p568
sI569
S'pictures'
p569
sI570
S'power'
p570
sI571
S'rain'
p571
sI572
S'true'
p572
sI573
S'wait'
p573
sI574
S'delicious'
p574
sI575
S'eating'
p575
sI576
S'lol'
p576
sI577
S'lots'
p577
sI578
S'mistakes'
p578
sI579
S'outside'
p579
sI580
S'park'
p580
sI581
S'rainy'
p581
sI582
S'baby'
p582
sI583
S'cat'
p583
sI584
S'conversation'
p584
sI585
S'probably'
p585
sI586
S'sentence'
p586
sI587
S'whole'
p587
sI588
S'hear'
p588
sI589
S'heart'
p589
sI590
S'natural'
p590
sI591
S'real'
p591
sI592
S'sleepy'
p592
sI593
S'weeks'
p593
sI594
S'wonder'
p594
sI595
S'case'
p595
sI596
S'cute'
p596
sI597
S'excited'
p597
sI598
S'guys'
p598
sI599
S'point'
p599
sI600
S'sunday'
p600
sI601
S'toeic'
p601
sI602
S'trying'
p602
sI603
S'7'
p603
sI604
S'america'
p604
sI605
S'changed'
p605
sI606
S'cool'
p606
sI607
S'finish'
p607
sI608
S'forget'
p608
sI609
S'glad'
p609
sI610
S'green'
p610
sI611
S'opinion'
p611
sI612
S'picture'
p612
sI613
S'skill'
p613
sI614
S'songs'
p614
sI615
S'winter'
p615
sI616
S'whether'
p616
sI617
S'alone'
p617
sI618
S'continue'
p618
sI619
S'etc'
p619
sI620
S'guy'
p620
sI621
S'speakers'
p621
sI622
S'style'
p622
sI623
S'easily'
p623
sI624
S'homework'
p624
sI625
S'introduce'
p625
sI626
S'level'
p626
sI627
S'looks'
p627
sI628
S'seemed'
p628
sI629
S'<'
p629
sI630
S'drinking'
p630
sI631
S'history'
p631
sI632
S'rice'
p632
sI633
S'wear'
p633
sI634
S'blog'
p634
sI635
S'everybody'
p635
sI636
S'games'
p636
sI637
S'soccer'
p637
sI638
S'sound'
p638
sI639
S'travel'
p639
sI640
S'black'
p640
sI641
S'classes'
p641
sI642
S'close'
p642
sI643
S'four'
p643
sI644
S'front'
p644
sI645
S'moment'
p645
sI646
S'p'
p646
sI647
S'pass'
p647
sI648
S'realized'
p648
sI649
S'suddenly'
p649
sI650
S'yes'
p650
sI651
S'%'
p651
sI652
S'00'
p652
sI653
S'air'
p653
sI654
S'film'
p654
sI655
S'friday'
p655
sI656
S'group'
p656
sI657
S'hate'
p657
sI658
S'present'
p658
sI659
S'store'
p659
sI660
S'useful'
p660
sI661
S'worried'
p661
sI662
S'afraid'
p662
sI663
S'afternoon'
p663
sI664
S'age'
p664
sI665
S'area'
p665
sI666
S'held'
p666
sI667
S'major'
p667
sI668
S'simple'
p668
sI669
S'takes'
p669
sI670
S'warm'
p670
sI671
S'addition'
p671
sI672
S'bye'
p672
sI673
S'mom'
p673
sI674
S'move'
p674
sI675
S'places'
p675
sI676
S'program'
p676
sI677
S'recommend'
p677
sI678
S'ability'
p678
sI679
S'cup'
p679
sI680
S'energy'
p680
sI681
S'gone'
p681
sI682
S'instead'
p682
sI683
S'kyoto'
p683
sI684
S'o'
p684
sI685
S'running'
p685
sI686
S'saturday'
p686
sI687
S'says'
p687
sI688
S'dog'
p688
sI689
S'meaning'
p689
sI690
S'number'
p690
sI691
S'rest'
p691
sI692
S'station'
p692
sI693
S'sweet'
p693
sI694
S'tonight'
p694
sI695
S'turn'
p695
sI696
S'video'
p696
sI697
S'visited'
p697
sI698
S'comes'
p698
sI699
S'contact'
p699
sI700
S'evening'
p700
sI701
S'festival'
p701
sI702
S'fine'
p702
sI703
S'knew'
p703
sI704
S'lives'
p704
sI705
S'lose'
p705
sI706
S'miss'
p706
sI707
S'questions'
p707
sI708
S'9'
p708
sI709
S'according'
p709
sI710
S'communicate'
p710
sI711
S'cut'
p711
sI712
S'fall'
p712
sI713
S'matter'
p713
sI714
S'post'
p714
sI715
S'prepare'
p715
sI716
S'saying'
p716
sI717
S'service'
p717
sI718
S'20'
p718
sI719
S'boss'
p719
sI720
S'bus'
p720
sI721
S'ceremony'
p721
sI722
S'communication'
p722
sI723
S'exciting'
p723
sI724
S'library'
p724
sI725
S'online'
p725
sI726
S'points'
p726
sI727
S'pretty'
p727
sI728
S'voice'
p728
sI729
S'wants'
p729
sI730
S'wonderful'
p730
sI731
S'works'
p731
sI732
S'anyone'
p732
sI733
S'bath'
p733
sI734
S'couple'
p734
sI735
S'exams'
p735
sI736
S'heavy'
p736
sI737
S'kinds'
p737
sI738
S'known'
p738
sI739
S'lived'
p739
sI740
S'national'
p740
sI741
S'paper'
p741
sI742
S'price'
p742
sI743
S'reasons'
p743
sI744
S'result'
p744
sI745
S'sounds'
p745
sI746
S'traditional'
p746
sI747
S'waiting'
p747
sI748
S'australia'
p748
sI749
S'b'
p749
sI750
S'boring'
p750
sI751
S'born'
p751
sI752
S'dance'
p752
sI753
S'expensive'
p753
sI754
S'fast'
p754
sI755
S'hour'
p755
sI756
S'na'
p756
sI757
S'score'
p757
sI758
S'trouble'
p758
sI759
S'vocabulary'
p759
sI760
S'ways'
p760
sI761
S'weight'
p761
sI762
S'white'
p762
sI763
S'difference'
p763
sI764
S'foreigners'
p764
sI765
S'french'
p765
sI766
S'goal'
p766
sI767
S'government'
p767
sI768
S'grammar'
p768
sI769
S'hobby'
p769
sI770
S'hospital'
p770
sI771
S'joined'
p771
sI772
S'less'
p772
sI773
S'mail'
p773
sI774
S'sea'
p774
sI775
S'set'
p775
sI776
S'teachers'
p776
sI777
S'under'
p777
sI778
S'beer'
p778
sI779
S'center'
p779
sI780
S'crazy'
p780
sI781
S'god'
p781
sI782
S'gon'
p782
sI783
S'graduate'
p783
sI784
S'holidays'
p784
sI785
S'middle'
p785
sI786
S'pay'
p786
sI787
S'send'
p787
sI788
S'street'
p788
sI789
S'teaching'
p789
sI790
S'against'
p790
sI791
S'among'
p791
sI792
S'boy'
p792
sI793
S'brother'
p793
sI794
S'common'
p794
sI795
S'daily'
p795
sI796
S'done'
p796
sI797
S'eyes'
p797
sI798
S'fortunately'
p798
sI799
S'junior'
p799
sI800
S'main'
p800
sI801
S'mr'
p801
sI802
S'nervous'
p802
sI803
S'plans'
p803
sI804
S'tennis'
p804
sI805
S'unfortunately'
p805
sI806
S'boyfriend'
p806
sI807
S'character'
p807
sI808
S'clean'
p808
sI809
S'cost'
p809
sI810
S'girls'
p810
sI811
S'helps'
p811
sI812
S'international'
p812
sI813
S'monday'
p813
sI814
S'raining'
p814
sI815
S'seeing'
p815
sI816
S'starting'
p816
sI817
S'web'
p817
sI818
S'arrived'
p818
sI819
S'began'
p819
sI820
S'breakfast'
p820
sI821
S'bring'
p821
sI822
S'canada'
p822
sI823
S'coffee'
p823
sI824
S'event'
p824
sI825
S'exercise'
p825
sI826
S'explain'
p826
sI827
S'feelings'
p827
sI828
S'foods'
p828
sI829
S'hotel'
p829
sI830
S'human'
p830
sI831
S'pc'
p831
sI832
S'police'
p832
sI833
S'quickly'
p833
sI834
S'side'
p834
sI835
S'society'
p835
sI836
S'spent'
p836
sI837
S'staff'
p837
sI838
S'stayed'
p838
sI839
S'swimming'
p839
sI840
S'title'
p840
sI841
S'usa'
p841
sI842
S'usual'
p842
sI843
S'workers'
p843
sI844
S'beginning'
p844
sI845
S'break'
p845
sI846
S'choose'
p846
sI847
S'clock'
p847
sI848
S'cooking'
p848
sI849
S'due'
p849
sI850
S'express'
p850
sI851
S'health'
p851
sI852
S'interview'
p852
sI853
S'jobs'
p853
sI854
S'named'
p854
sI855
S'someday'
p855
sI856
S'stopped'
p856
sI857
S'strange'
p857
sI858
S'training'
p858
sI859
S'type'
p859
sI860
S'woke'
p860
sI861
S'11'
p861
sI862
S'cherry'
p862
sI863
S'cook'
p863
sI864
S'dictionary'
p864
sI865
S'guitar'
p865
sI866
S'impressed'
p866
sI867
S'members'
p867
sI868
S'moved'
p868
sI869
S'novel'
p869
sI870
S'satisfied'
p870
sI871
S'series'
p871
sI872
S'taken'
p872
sI873
S'twitter'
p873
sI874
S'worse'
p874
sI875
S'$'
p875
sI876
S'advice'
p876
sI877
S'attended'
p877
sI878
S'card'
p878
sI879
S'chat'
p879
sI880
S'door'
p880
sI881
S'goes'
p881
sI882
S'hometown'
p882
sI883
S'lately'
p883
sI884
S'liked'
p884
sI885
S'line'
p885
sI886
S'master'
p886
sI887
S'normal'
p887
sI888
S'open'
p888
sI889
S'perfect'
p889
sI890
S'planning'
p890
sI891
S'seem'
p891
sI892
S'self'
p892
sI893
S'sent'
p893
sI894
S'sports'
p894
sI895
S'terrible'
p895
sI896
S'wake'
p896
sI897
S'york'
p897
sI898
S'april'
p898
sI899
S'customers'
p899
sI900
S'except'
p900
sI901
S'forgot'
p901
sI902
S'harder'
p902
sI903
S'light'
p903
sI904
S'nature'
p904
sI905
S'rather'
p905
sI906
S'red'
p906
sI907
S'road'
p907
sI908
S'sense'
p908
sI909
S'slept'
p909
sI910
S'spanish'
p910
sI911
S'third'
p911
sI912
S'xd'
p912
sI913
S'angry'
p913
sI914
S'anymore'
p914
sI915
S'apartment'
p915
sI916
S'appreciate'
p916
sI917
S'celebrate'
p917
sI918
S'comfortable'
p918
sI919
S'comments'
p919
sI920
S'grade'
p920
sI921
S'lazy'
p921
sI922
S'london'
p922
sI923
S'member'
p923
sI924
S'men'
p924
sI925
S'needs'
p925
sI926
S'public'
p926
sI927
S'received'
p927
sI928
S'return'
p928
sI929
S'semester'
p929
sI930
S'won'
p930
sI931
S'wondering'
p931
sI932
S'yen'
p932
sI933
S'animation'
p933
sI934
S'education'
p934
sI935
S'following'
p935
sI936
S'including'
p936
sI937
S'inside'
p937
sI938
S'longer'
p938
sI939
S'lovely'
p939
sI940
S'moreover'
p940
sI941
S'needed'
p941
sI942
S'noticed'
p942
sI943
S'ones'
p943
sI944
S'pain'
p944
sI945
S'prepared'
p945
sI946
S'scared'
p946
sI947
S'speaker'
p947
sI948
S'taste'
p948
sI949
S'topic'
p949
sI950
S'agree'
p950
sI951
S'autumn'
p951
sI952
S'baseball'
p952
sI953
S'broken'
p953
sI954
S'cafe'
p954
sI955
S'camera'
p955
sI956
S'characters'
p956
sI957
S'classmates'
p957
sI958
S'concert'
p958
sI959
S'entrance'
p959
sI960
S'fell'
p960
sI961
S'fish'
p961
sI962
S'graduation'
p962
sI963
S'head'
p963
sI964
S'indian'
p964
sI965
S'lecture'
p965
sI966
S'likes'
p966
sI967
S'loved'
p967
sI968
S'low'
p968
sI969
S'lucky'
p969
sI970
S'match'
p970
sI971
S'north'
p971
sI972
S'period'
p972
sI973
S'pm'
p973
sI974
S'race'
p974
sI975
S'relax'
p975
sI976
S'september'
p976
sI977
S'six'
p977
sI978
S'sleeping'
p978
sI979
S'somewhere'
p979
sI980
S'stories'
p980
sI981
S'stupid'
p981
sI982
S'taiwan'
p982
sI983
S'wedding'
p983
sI984
S'whenever'
p984
sI985
S'win'
p985
sI986
S'women'
p986
sI987
S'12'
p987
sI988
S'15'
p988
sI989
S'bag'
p989
sI990
S'below'
p990
sI991
S'died'
p991
sI992
S'dishes'
p992
sI993
S'employees'
p993
sI994
S'expect'
p994
sI995
S'letter'
p995
sI996
S'math'
p996
sI997
S'mistake'
p997
sI998
S'necessary'
p998
sI999
S'preparing'
p999
sI1000
S'save'
p1000
sI1001
S'schedule'
p1001
sI1002
S'serious'
p1002
sI1003
S'sick'
p1003
sI1004
S'south'
p1004
sI1005
S'speed'
p1005
sI1006
S'sun'
p1006
sI1007
S'100'
p1007
sI1008
S'above'
p1008
sI1009
S'along'
p1009
sI1010
S'band'
p1010
sI1011
S'blossoms'
p1011
sI1012
S'bread'
p1012
sI1013
S'c'
p1013
sI1014
S'chocolate'
p1014
sI1015
S'companies'
p1015
sI1016
S'completely'
p1016
sI1017
S'control'
p1017
sI1018
S'corrections'
p1018
sI1019
S'deal'
p1019
sI1020
S'exchange'
p1020
sI1021
S'hardly'
p1021
sI1022
S'heat'
p1022
sI1023
S'hit'
p1023
sI1024
S'kids'
p1024
sI1025
S'large'
p1025
sI1026
S'message'
p1026
sI1027
S'original'
p1027
sI1028
S'paid'
p1028
sI1029
S'painting'
p1029
sI1030
S'recent'
p1030
sI1031
S'software'
p1031
sI1032
S'stuff'
p1032
sI1033
S'term'
p1033
sI1034
S'typhoon'
p1034
sI1035
S'+'
p1035
sI1036
S'2011'
p1036
sI1037
S'blue'
p1037
sI1038
S'cake'
p1038
sI1039
S'catch'
p1039
sI1040
S'chatting'
p1040
sI1041
S'community'
p1041
sI1042
S'effort'
p1042
sI1043
S'either'
p1043
sI1044
S'enter'
p1044
sI1045
S'given'
p1045
sI1046
S'hands'
p1046
sI1047
S'happen'
p1047
sI1048
S'helped'
p1048
sI1049
S'knowledge'
p1049
sI1050
S'local'
p1050
sI1051
S'march'
p1051
sI1052
S'married'
p1052
sI1053
S'nobody'
p1053
sI1054
S'player'
p1054
sI1055
S'seriously'
p1055
sI1056
S'shops'
p1056
sI1057
S'sing'
p1057
sI1058
S'sky'
p1058
sI1059
S'space'
p1059
sI1060
S'speech'
p1060
sI1061
S'step'
p1061
sI1062
S'ten'
p1062
sI1063
S'top'
p1063
sI1064
S'view'
p1064
sI1065
S'begin'
p1065
sI1066
S'date'
p1066
sI1067
S'dreams'
p1067
sI1068
S'expression'
p1068
sI1069
S'fashion'
p1069
sI1070
S'follow'
p1070
sI1071
S'garden'
p1071
sI1072
S'gets'
p1072
sI1073
S'hurt'
p1073
sI1074
S'july'
p1074
sI1075
S'market'
p1075
sI1076
S'mine'
p1076
sI1077
S'nowadays'
p1077
sI1078
S'osaka'
p1078
sI1079
S'relationship'
p1079
sI1080
S'subject'
p1080
sI1081
S'support'
p1081
sI1082
S'technology'
p1082
sI1083
S'temperature'
p1083
sI1084
S'thoughts'
p1084
sI1085
S'truth'
p1085
sI1086
S'walking'
p1086
sI1087
S'whose'
p1087
sI1088
S'younger'
p1088
sI1089
S'art'
p1089
sI1090
S'asleep'
p1090
sI1091
S'beach'
p1091
sI1092
S'british'
p1092
sI1093
S'careful'
p1093
sI1094
S'dear'
p1094
sI1095
S'driving'
p1095
sI1096
S'field'
p1096
sI1097
S'fireworks'
p1097
sI1098
S'fluently'
p1098
sI1099
S'girlfriend'
p1099
sI1100
S'host'
p1100
sI1101
S'law'
p1101
sI1102
S'medicine'
p1102
sI1103
S'prefecture'
p1103
sI1104
S'prefer'
p1104
sI1105
S'research'
p1105
sI1106
S'smart'
p1106
sI1107
S'swim'
p1107
sI1108
S'thai'
p1108
sI1109
S'walked'
p1109
sI1110
S'wearing'
p1110
sI1111
S'wow'
p1111
sI1112
S'x'
p1112
sI1113
S'yeah'
p1113
sI1114
S'2009'
p1114
sI1115
S'august'
p1115
sI1116
S'broke'
p1116
sI1117
S'building'
p1117
sI1118
S'cats'
p1118
sI1119
S'caught'
p1119
sI1120
S'compared'
p1120
sI1121
S'decide'
p1121
sI1122
S'drank'
p1122
sI1123
S'entries'
p1123
sI1124
S'exactly'
p1124
sI1125
S'examination'
p1125
sI1126
S'fan'
p1126
sI1127
S'fat'
p1127
sI1128
S'form'
p1128
sI1129
S'fresh'
p1129
sI1130
S'german'
p1130
sI1131
S'gives'
p1131
sI1132
S'helpful'
p1132
sI1133
S'ideas'
p1133
sI1134
S'iphone'
p1134
sI1135
S'kept'
p1135
sI1136
S'machine'
p1136
sI1137
S'manga'
p1137
sI1138
S'mobile'
p1138
sI1139
S'moon'
p1139
sI1140
S'nuclear'
p1140
sI1141
S'partner'
p1141
sI1142
S'photo'
p1142
sI1143
S'ramen'
p1143
sI1144
S'river'
p1144
sI1145
S'scene'
p1145
sI1146
S'singapore'
p1146
sI1147
S'single'
p1147
sI1148
S'staying'
p1148
sI1149
S'stores'
p1149
sI1150
S'stress'
p1150
sI1151
S'table'
p1151
sI1152
S'weak'
p1152
sI1153
S'yourself'
p1153
sI1154
S'2010'
p1154
sI1155
S'account'
p1155
sI1156
S'add'
p1156
sI1157
S'airport'
p1157
sI1158
S'amazing'
p1158
sI1159
S'amount'
p1159
sI1160
S'attention'
p1160
sI1161
S'besides'
p1161
sI1162
S'brought'
p1162
sI1163
S'closed'
p1163
sI1164
S'design'
p1164
sI1165
S'doctor'
p1165
sI1166
S'economy'
p1166
sI1167
S'else'
p1167
sI1168
S'environment'
p1168
sI1169
S'events'
p1169
sI1170
S'expressions'
p1170
sI1171
S'facebook'
p1171
sI1172
S'final'
p1172
sI1173
S'hokkaido'
p1173
sI1174
S'join'
p1174
sI1175
S'lessons'
p1175
sI1176
S'luck'
p1176
sI1177
S'older'
p1177
sI1178
S'opportunity'
p1178
sI1179
S'presentation'
p1179
sI1180
S'pronunciation'
p1180
sI1181
S'ran'
p1181
sI1182
S'region'
p1182
sI1183
S'remembered'
p1183
sI1184
S'russian'
p1184
sI1185
S'schools'
p1185
sI1186
S'shocked'
p1186
sI1187
S'size'
p1187
sI1188
S'solve'
p1188
sI1189
S'sunny'
p1189
sI1190
S'sushi'
p1190
sI1191
S'text'
p1191
sI1192
S'till'
p1192
sI1193
S'twice'
p1193
sI1194
S'accent'
p1194
sI1195
S'activities'
p1195
sI1196
S'articles'
p1196
sI1197
S'author'
p1197
sI1198
S'bored'
p1198
sI1199
S'checked'
p1199
sI1200
S'chicken'
p1200
sI1201
S'clear'
p1201
sI1202
S'confused'
p1202
sI1203
S'crying'
p1203
sI1204
S'dancing'
p1204
sI1205
S'disappointed'
p1205
sI1206
S'dvd'
p1206
sI1207
S'elementary'
p1207
sI1208
S'england'
p1208
sI1209
S'floor'
p1209
sI1210
S'golden'
p1210
sI1211
S'google'
p1211
sI1212
S'introduction'
p1212
sI1213
S'january'
p1213
sI1214
S'june'
p1214
sI1215
S'notice'
p1215
sI1216
S'okay'
p1216
sI1217
S'project'
p1217
sI1218
S'restaurants'
p1218
sI1219
S'shows'
p1219
sI1220
S'similar'
p1220
sI1221
S'singer'
p1221
sI1222
S'social'
p1222
sI1223
S'standing'
p1223
sI1224
S'studies'
p1224
sI1225
S'supposed'
p1225
sI1226
S'taught'
p1226
sI1227
S'trees'
p1227
sI1228
S'western'
p1228
sI1229
S'wind'
p1229
sI1230
S'achieve'
p1230
sI1231
S'ball'
p1231
sI1232
S'buying'
p1232
sI1233
S'co'
p1233
sI1234
S'department'
p1234
sI1235
S'draw'
p1235
sI1236
S'experiences'
p1236
sI1237
S'happiness'
p1237
sI1238
S'hey'
p1238
sI1239
S'imagine'
p1239
sI1240
S'island'
p1240
sI1241
S'leaves'
p1241
sI1242
S'mountain'
p1242
sI1243
S'moving'
p1243
sI1244
S'piano'
p1244
sI1245
S'players'
p1245
sI1246
S'pool'
p1246
sI1247
S'positive'
p1247
sI1248
S'sometime'
p1248
sI1249
S'super'
p1249
sI1250
S'tears'
p1250
sI1251
S'totally'
p1251
sI1252
S'anybody'
p1252
sI1253
S'becoming'
p1253
sI1254
S'bicycle'
p1254
sI1255
S'blood'
p1255
sI1256
S'cheap'
p1256
sI1257
S'choice'
p1257
sI1258
S'confidence'
p1258
sI1259
S'cry'
p1259
sI1260
S'current'
p1260
sI1261
S'curry'
p1261
sI1262
S'drama'
p1262
sI1263
S'drive'
p1263
sI1264
S'enjoying'
p1264
sI1265
S'essay'
p1265
sI1266
S'general'
p1266
sI1267
S'graduated'
p1267
sI1268
S'grow'
p1268
sI1269
S'gym'
p1269
sI1270
S'killed'
p1270
sI1271
S'located'
p1271
sI1272
S'medical'
p1272
sI1273
S'mood'
p1273
sI1274
S'photos'
p1274
sI1275
S'plants'
p1275
sI1276
S'position'
p1276
sI1277
S'scary'
p1277
sI1278
S'singing'
p1278
sI1279
S'sit'
p1279
sI1280
S'sitting'
p1280
sI1281
S'translate'
p1281
sI1282
S'united'
p1282
sI1283
S'vegetables'
p1283
sI1284
S'accident'
p1284
sI1285
S'changing'
p1285
sI1286
S'color'
p1286
sI1287
S'comment'
p1287
sI1288
S'corrected'
p1288
sI1289
S'correcting'
p1289
sI1290
S'dangerous'
p1290
sI1291
S'death'
p1291
sI1292
S'difficulty'
p1292
sI1293
S'drinks'
p1293
sI1294
S'economic'
p1294
sI1295
S'ended'
p1295
sI1296
S'flight'
p1296
sI1297
S'gain'
p1297
sI1298
S'huge'
p1298
sI1299
S'im'
p1299
sI1300
S'messages'
p1300
sI1301
S'miyazaki'
p1301
sI1302
S'nose'
p1302
sI1303
S'okinawa'
p1303
sI1304
S'per'
p1304
sI1305
S'phrase'
p1305
sI1306
S'products'
p1306
sI1307
S'related'
p1307
sI1308
S'ride'
p1308
sI1309
S'safe'
p1309
sI1310
S'sell'
p1310
sI1311
S'share'
p1311
sI1312
S'showed'
p1312
sI1313
S'somebody'
p1313
sI1314
S'spoke'
p1314
sI1315
S'stomach'
p1315
sI1316
S'themselves'
p1316
sI1317
S'touch'
p1317
sI1318
S'tough'
p1318
sI1319
S'traffic'
p1319
sI1320
S'turned'
p1320
sI1321
S'unique'
p1321
sI1322
S'washing'
p1322
sI1323
S'window'
p1323
sI1324
S'#'
p1324
sI1325
S'0'
p1325
sI1326
S'1st'
p1326
sI1327
S'animals'
p1327
sI1328
S'areas'
p1328
sI1329
S'atmosphere'
p1329
sI1330
S'awesome'
p1330
sI1331
S'based'
p1331
sI1332
S'basketball'
p1332
sI1333
S'bigger'
p1333
sI1334
S'certain'
p1334
sI1335
S'challenge'
p1335
sI1336
S'church'
p1336
sI1337
S'concerned'
p1337
sI1338
S'dark'
p1338
sI1339
S'drove'
p1339
sI1340
S'effect'
p1340
sI1341
S'effective'
p1341
sI1342
S'electricity'
p1342
sI1343
S'entered'
p1343
sI1344
S'exhausted'
p1344
sI1345
S'films'
p1345
sI1346
S'france'
p1346
sI1347
S'goals'
p1347
sI1348
S'halloween'
p1348
sI1349
S'hold'
p1349
sI1350
S'honest'
p1350
sI1351
S'hungry'
p1351
sI1352
S'l'
p1352
sI1353
S'leaving'
p1353
sI1354
S'limited'
p1354
sI1355
S'list'
p1355
sI1356
S'listened'
p1356
sI1357
S'magazines'
p1357
sI1358
S'meal'
p1358
sI1359
S'memory'
p1359
sI1360
S'miku'
p1360
sI1361
S'novels'
p1361
sI1362
S'october'
p1362
sI1363
S'opened'
p1363
sI1364
S'piece'
p1364
sI1365
S'review'
p1365
sI1366
S'science'
p1366
sI1367
S'smoking'
p1367
sI1368
S'sold'
p1368
sI1369
S'states'
p1369
sI1370
S'tests'
p1370
sI1371
S'thus'
p1371
sI1372
S'topics'
p1372
sI1373
S'uk'
p1373
sI1374
S'@'
p1374
sI1375
S'action'
p1375
sI1376
S'alcohol'
p1376
sI1377
S'application'
p1377
sI1378
S'behind'
p1378
sI1379
S'cell'
p1379
sI1380
S'colleagues'
p1380
sI1381
S'dad'
p1381
sI1382
S'electric'
p1382
sI1383
S'email'
p1383
sI1384
S'everywhere'
p1384
sI1385
S'excellent'
p1385
sI1386
S'fantastic'
p1386
sI1387
S'faster'
p1387
sI1388
S'feet'
p1388
sI1389
S'flower'
p1389
sI1390
S'flowers'
p1390
sI1391
S'force'
p1391
sI1392
S'former'
p1392
sI1393
S'friendly'
p1393
sI1394
S'ha'
p1394
sI1395
S'healthy'
p1395
sI1396
S'himself'
p1396
sI1397
S'increase'
p1397
sI1398
S'interest'
p1398
sI1399
S'invited'
p1399
sI1400
S'items'
p1400
sI1401
S'knows'
p1401
sI1402
S'lyrics'
p1402
sI1403
S'memories'
p1403
sI1404
S'motivation'
p1404
sI1405
S'nara'
p1405
sI1406
S'offer'
p1406
sI1407
S'patient'
p1407
sI1408
S'planned'
p1408
sI1409
S'previous'
p1409
sI1410
S'private'
p1410
sI1411
S'radio'
p1411
sI1412
S'reality'
p1412
sI1413
S'realize'
p1413
sI1414
S'sake'
p1414
sI1415
S'sales'
p1415
sI1416
S'smile'
p1416
sI1417
S'toy'
p1417
sI1418
S'war'
p1418
sI1419
S'within'
p1419
sI1420
S'yoga'
p1420
sI1421
S'23'
p1421
sI1422
S'24'
p1422
sI1423
S'5th'
p1423
sI1424
S'advance'
p1424
sI1425
S'bar'
p1425
sI1426
S'conversations'
p1426
sI1427
S'costs'
p1427
sI1428
S'customer'
p1428
sI1429
S'dvds'
p1429
sI1430
S'easier'
p1430
sI1431
S'failed'
p1431
sI1432
S'higher'
p1432
sI1433
S'ice'
p1433
sI1434
S'impression'
p1434
sI1435
S'issue'
p1435
sI1436
S'kindergarten'
p1436
sI1437
S'kindle'
p1437
sI1438
S'meat'
p1438
sI1439
S'modern'
p1439
sI1440
S'newspaper'
p1440
sI1441
S'non'
p1441
sI1442
S'ny'
p1442
sI1443
S'perfectly'
p1443
sI1444
S'process'
p1444
sI1445
S'proud'
p1445
sI1446
S'provide'
p1446
sI1447
S'purpose'
p1447
sI1448
S'receive'
p1448
sI1449
S'search'
p1449
sI1450
S'seven'
p1450
sI1451
S'shower'
p1451
sI1452
S'situations'
p1452
sI1453
S'temple'
p1453
sI1454
S'tend'
p1454
sI1455
S'tense'
p1455
sI1456
S'tip'
p1456
sI1457
S'vietnam'
p1457
sI1458
S'worry'
p1458
sI1459
S'worst'
p1459
sI1460
S'14'
p1460
sI1461
S'16'
p1461
sI1462
S'ancient'
p1462
sI1463
S'apple'
p1463
sI1464
S'attend'
p1464
sI1465
S'bear'
p1465
sI1466
S'biggest'
p1466
sI1467
S'bike'
p1467
sI1468
S'career'
p1468
sI1469
S'changes'
p1469
sI1470
S'concentrate'
p1470
sI1471
S'continued'
p1471
sI1472
S'covered'
p1472
sI1473
S'currently'
p1473
sI1474
S'deep'
p1474
sI1475
S'degree'
p1475
sI1476
S'depressed'
p1476
sI1477
S'desk'
p1477
sI1478
S'details'
p1478
sI1479
S'development'
p1479
sI1480
S'directly'
p1480
sI1481
S'engineer'
p1481
sI1482
S'europe'
p1482
sI1483
S'expected'
p1483
sI1484
S'experienced'
p1484
sI1485
S'familiar'
p1485
sI1486
S'february'
p1486
sI1487
S'fight'
p1487
sI1488
S'forever'
p1488
sI1489
S'germany'
p1489
sI1490
S'global'
p1490
sI1491
S'gotten'
p1491
sI1492
S'growing'
p1492
sI1493
S'hero'
p1493
sI1494
S'hunting'
p1494
sI1495
S'india'
p1495
sI1496
S'introduced'
p1496
sI1497
S'keeping'
p1497
sI1498
S'kill'
p1498
sI1499
S'laugh'
p1499
sI1500
S'lonely'
p1500
sI1501
S'official'
p1501
sI1502
S'opportunities'
p1502
sI1503
S'overseas'
p1503
sI1504
S'owner'
p1504
sI1505
S'personality'
p1505
sI1506
S'phrases'
p1506
sI1507
S'plant'
p1507
sI1508
S'pop'
p1508
sI1509
S'president'
p1509
sI1510
S'professional'
p1510
sI1511
S'quiet'
p1511
sI1512
S'quit'
p1512
sI1513
S'relationships'
p1513
sI1514
S'respect'
p1514
sI1515
S'rich'
p1515
sI1516
S'rock'
p1516
sI1517
S'sat'
p1517
sI1518
S'seoul'
p1518
sI1519
S'standard'
p1519
sI1520
S'thailand'
p1520
sI1521
S'tongue'
p1521
sI1522
S'universities'
p1522
sI1523
S'whatever'
p1523
sI1524
S'whom'
p1524
sI1525
S'wine'
p1525
sI1526
S'25'
p1526
sI1527
S'activity'
p1527
sI1528
S'airplane'
p1528
sI1529
S'anime'
p1529
sI1530
S'answered'
p1530
sI1531
S'beauty'
p1531
sI1532
S'behavior'
p1532
sI1533
S'beside'
p1533
sI1534
S'built'
p1534
sI1535
S'cakes'
p1535
sI1536
S'canadian'
p1536
sI1537
S'cause'
p1537
sI1538
S'cd'
p1538
sI1539
S'chose'
p1539
sI1540
S'com'
p1540
sI1541
S'complex'
p1541
sI1542
S'condition'
p1542
sI1543
S'content'
p1543
sI1544
S'cooked'
p1544
sI1545
S'cream'
p1545
sI1546
S'december'
p1546
sI1547
S'decision'
p1547
sI1548
S'deeply'
p1548
sI1549
S'disaster'
p1549
sI1550
S'discuss'
p1550
sI1551
S'driver'
p1551
sI1552
S'eve'
p1552
sI1553
S'families'
p1553
sI1554
S'fever'
p1554
sI1555
S'focus'
p1555
sI1556
S'giving'
p1556
sI1557
S'ground'
p1557
sI1558
S'hahaha'
p1558
sI1559
S'harry'
p1559
sI1560
S'hearing'
p1560
sI1561
S'historical'
p1561
sI1562
S'houses'
p1562
sI1563
S'instance'
p1563
sI1564
S'italy'
p1564
sI1565
S'jogging'
p1565
sI1566
S'joke'
p1566
sI1567
S'kid'
p1567
sI1568
S'lack'
p1568
sI1569
S'literature'
p1569
sI1570
S'lower'
p1570
sI1571
S'mac'
p1571
sI1572
S'manage'
p1572
sI1573
S'method'
p1573
sI1574
S'nevertheless'
p1574
sI1575
S'page'
p1575
sI1576
S'pen'
p1576
sI1577
S'pleased'
p1577
sI1578
S'pork'
p1578
sI1579
S'professor'
p1579
sI1580
S'recommended'
p1580
sI1581
S'relieved'
p1581
sI1582
S'report'
p1582
sI1583
S'rooms'
p1583
sI1584
S'senior'
p1584
sI1585
S'shoes'
p1585
sI1586
S'sightseeing'
p1586
sI1587
S'slow'
p1587
sI1588
S'sns'
p1588
sI1589
S'starts'
p1589
sI1590
S'state'
p1590
sI1591
S'straight'
p1591
sI1592
S'stronger'
p1592
sI1593
S'studio'
p1593
sI1594
S'sumo'
p1594
sI1595
S'talent'
p1595
sI1596
S'toefl'
p1596
sI1597
S'translation'
p1597
sI1598
S'universe'
p1598
sI1599
S'worth'
p1599
sI1600
S'ya'
p1600
sI1601
S'2nd'
p1601
sI1602
S'40'
p1602
sI1603
S'50'
p1603
sI1604
S'absolutely'
p1604
sI1605
S'act'
p1605
sI1606
S'ah'
p1606
sI1607
S'box'
p1607
sI1608
S'brain'
p1608
sI1609
S'carefully'
p1609
sI1610
S'challenging'
p1610
sI1611
S'competition'
p1611
sI1612
S'convenience'
p1612
sI1613
S'cousin'
p1613
sI1614
S'create'
p1614
sI1615
S'cycling'
p1615
sI1616
S'daughters'
p1616
sI1617
S'definitely'
p1617
sI1618
S'die'
p1618
sI1619
S'diet'
p1619
sI1620
S'differences'
p1620
sI1621
S'digital'
p1621
sI1622
S'director'
p1622
sI1623
S'dont'
p1623
sI1624
S'dramas'
p1624
sI1625
S'drawing'
p1625
sI1626
S'drunk'
p1626
sI1627
S'earlier'
p1627
sI1628
S'effects'
p1628
sI1629
S'enjoyable'
p1629
sI1630
S'ex'
p1630
sI1631
S'extra'
p1631
sI1632
S'f'
p1632
sI1633
S'figure'
p1633
sI1634
S'finding'
p1634
sI1635
S'football'
p1635
sI1636
S'fruit'
p1636
sI1637
S'furthermore'
p1637
sI1638
S'gift'
p1638
sI1639
S'headache'
p1639
sI1640
S'hmm'
p1640
sI1641
S'honestly'
p1641
sI1642
S'impossible'
p1642
sI1643
S'k'
p1643
sI1644
S'lady'
p1644
sI1645
S'magazine'
p1645
sI1646
S'mainly'
p1646
sI1647
S'mall'
p1647
sI1648
S'media'
p1648
sI1649
S'midnight'
p1649
sI1650
S'musical'
p1650
sI1651
S'nbsp'
p1651
sI1652
S'nearly'
p1652
sI1653
S'negative'
p1653
sI1654
S'nor'
p1654
sI1655
S'omg'
p1655
sI1656
S'particular'
p1656
sI1657
S'programs'
p1657
sI1658
S'regret'
p1658
sI1659
S'relaxed'
p1659
sI1660
S'rent'
p1660
sI1661
S'reply'
p1661
sI1662
S'risk'
p1662
sI1663
S'safety'
p1663
sI1664
S'shape'
p1664
sI1665
S'somehow'
p1665
sI1666
S'sore'
p1666
sI1667
S'sort'
p1667
sI1668
S'spaghetti'
p1668
sI1669
S'subjects'
p1669
sI1670
S'success'
p1670
sI1671
S'thursday'
p1671
sI1672
S'translated'
p1672
sI1673
S'treat'
p1673
sI1674
S'upset'
p1674
sI1675
S'waste'
p1675
sI1676
S'welcome'
p1676
sI1677
S'wet'
p1677
sI1678
S'youtube'
p1678
sI1679
S'13'
p1679
sI1680
S'3d'
p1680
sI1681
S'accept'
p1681
sI1682
S'across'
p1682
sI1683
S'americans'
p1683
sI1684
S'answers'
p1684
sI1685
S'asian'
p1685
sI1686
S'asking'
p1686
sI1687
S'calm'
p1687
sI1688
S'camp'
p1688
sI1689
S'corner'
p1689
sI1690
S'curious'
p1690
sI1691
S'dogs'
p1691
sI1692
S'don'
p1692
sI1693
S'eaten'
p1693
sI1694
S'egg'
p1694
sI1695
S'eggs'
p1695
sI1696
S'factory'
p1696
sI1697
S'foot'
p1697
sI1698
S'fried'
p1698
sI1699
S'gold'
p1699
sI1700
S'hang'
p1700
sI1701
S'happens'
p1701
sI1702
S'hobbies'
p1702
sI1703
S'immediately'
p1703
sI1704
S'impressive'
p1704
sI1705
S'ipad'
p1705
sI1706
S'italian'
p1706
sI1707
S'journals'
p1707
sI1708
S'kimono'
p1708
sI1709
S'kitchen'
p1709
sI1710
S'kitty'
p1710
sI1711
S'knife'
p1711
sI1712
S'kong'
p1712
sI1713
S'latest'
p1713
sI1714
S'lie'
p1714
sI1715
S'meals'
p1715
sI1716
S'merry'
p1716
sI1717
S'missed'
p1717
sI1718
S'mum'
p1718
sI1719
S'ordered'
p1719
sI1720
S'performance'
p1720
sI1721
S'perhaps'
p1721
sI1722
S'personal'
p1722
sI1723
S'pet'
p1723
sI1724
S'picked'
p1724
sI1725
S'population'
p1725
sI1726
S'practical'
p1726
sI1727
S'practicing'
p1727
sI1728
S'pray'
p1728
sI1729
S'precious'
p1729
sI1730
S'progress'
p1730
sI1731
S'regular'
p1731
sI1732
S'relatives'
p1732
sI1733
S'results'
p1733
sI1734
S'roads'
p1734
sI1735
S'sites'
p1735
sI1736
S'skin'
p1736
sI1737
S'smoke'
p1737
sI1738
S'spare'
p1738
sI1739
S'spending'
p1739
sI1740
S'sport'
p1740
sI1741
S'stand'
p1741
sI1742
S'stressed'
p1742
sI1743
S'suppose'
p1743
sI1744
S'surprise'
p1744
sI1745
S'terms'
p1745
sI1746
S'tickets'
p1746
sI1747
S'total'
p1747
sI1748
S'traveling'
p1748
sI1749
S'understanding'
p1749
sI1750
S'uses'
p1750
sI1751
S'wondered'
p1751
sI1752
S'yokohama'
p1752
sI1753
S'18'
p1753
sI1754
S'21'
p1754
sI1755
S'academic'
p1755
sI1756
S'arrive'
p1756
sI1757
S'assistant'
p1757
sI1758
S'average'
p1758
sI1759
S'becomes'
p1759
sI1760
S'board'
p1760
sI1761
S'bottle'
p1761
sI1762
S'brand'
p1762
sI1763
S'carry'
p1763
sI1764
S'cars'
p1764
sI1765
S'caused'
p1765
sI1766
S'chances'
p1766
sI1767
S'clearly'
p1767
sI1768
S'cloudy'
p1768
sI1769
S'code'
p1769
sI1770
S'conclusion'
p1770
sI1771
S'consider'
p1771
sI1772
S'contest'
p1772
sI1773
S'contribute'
p1773
sI1774
S'despite'
p1774
sI1775
S'discount'
p1775
sI1776
S'discovered'
p1776
sI1777
S'distance'
p1777
sI1778
S'earth'
p1778
sI1779
S'european'
p1779
sI1780
S'faces'
p1780
sI1781
S'favourite'
p1781
sI1782
S'feature'
p1782
sI1783
S'fix'
p1783
sI1784
S'flu'
p1784
sI1785
S'frequently'
p1785
sI1786
S'hiroshima'
p1786
sI1787
S'horrible'
p1787
sI1788
S'itself'
p1788
sI1789
S'journey'
p1789
sI1790
S'karaoke'
p1790
sI1791
S'laptop'
p1791
sI1792
S'laughed'
p1792
sI1793
S'mark'
p1793
sI1794
S'marriage'
p1794
sI1795
S'mentioned'
p1795
sI1796
S'mixed'
p1796
sI1797
S'momoko'
p1797
sI1798
S'motivated'
p1798
sI1799
S'mouth'
p1799
sI1800
S'msn'
p1800
sI1801
S'noise'
p1801
sI1802
S'note'
p1802
sI1803
S'november'
p1803
sI1804
S'oral'
p1804
sI1805
S'ourselves'
p1805
sI1806
S'painful'
p1806
sI1807
S'participate'
p1807
sI1808
S'pick'
p1808
sI1809
S'plenty'
p1809
sI1810
S'potter'
p1810
sI1811
S'quality'
p1811
sI1812
S'reach'
p1812
sI1813
S'ready'
p1813
sI1814
S'reasonable'
p1814
sI1815
S'record'
p1815
sI1816
S'recover'
p1816
sI1817
S'reduce'
p1817
sI1818
S'registered'
p1818
sI1819
S'relatively'
p1819
sI1820
S'returned'
p1820
sI1821
S'seminar'
p1821
sI1822
S'shy'
p1822
sI1823
S'sign'
p1823
sI1824
S'silly'
p1824
sI1825
S'snowing'
p1825
sI1826
S'soft'
p1826
sI1827
S'solution'
p1827
sI1828
S'soul'
p1828
sI1829
S'strongly'
p1829
sI1830
S'suffered'
p1830
sI1831
S'suffering'
p1831
sI1832
S'supermarket'
p1832
sI1833
S'sweets'
p1833
sI1834
S'tells'
p1834
sI1835
S'towards'
p1835
sI1836
S'tuesday'
p1836
sI1837
S'uncomfortable'
p1837
sI1838
S'17'
p1838
sI1839
S'9th'
p1839
sI1840
S'academy'
p1840
sI1841
S'allowed'
p1841
sI1842
S'android'
p1842
sI1843
S'asia'
p1843
sI1844
S'aside'
p1844
sI1845
S'attitude'
p1845
sI1846
S'babies'
p1846
sI1847
S'balance'
p1847
sI1848
S'bangkok'
p1848
sI1849
S'basic'
p1849
sI1850
S'bathroom'
p1850
sI1851
S'beginner'
p1851
sI1852
S'boston'
p1852
sI1853
S'buildings'
p1853
sI1854
S'cancer'
p1854
sI1855
S'charge'
p1855
sI1856
S'cheaper'
p1856
sI1857
S'cheese'
p1857
sI1858
S'cities'
p1858
sI1859
S'climate'
p1859
sI1860
S'coast'
p1860
sI1861
S'comics'
p1861
sI1862
S'convenient'
p1862
sI1863
S'created'
p1863
sI1864
S'critical'
p1864
sI1865
S'crowded'
p1865
sI1866
S'dead'
p1866
sI1867
S'depends'
p1867
sI1868
S'develop'
p1868
sI1869
S'disney'
p1869
sI1870
S'dollars'
p1870
sI1871
S'double'
p1871
sI1872
S'doubt'
p1872
sI1873
S'dress'
p1873
sI1874
S'eager'
p1874
sI1875
S'engineering'
p1875
sI1876
S'essential'
p1876
sI1877
S'eventually'
p1877
sI1878
S'examples'
p1878
sI1879
S'excuse'
p1879
sI1880
S'extremely'
p1880
sI1881
S'feels'
p1881
sI1882
S'female'
p1882
sI1883
S'finishing'
p1883
sI1884
S'fire'
p1884
sI1885
S'fit'
p1885
sI1886
S'gas'
p1886
sI1887
S'ghibli'
p1887
sI1888
S'glasses'
p1888
sI1889
S'grew'
p1889
sI1890
S'hesitate'
p1890
sI1891
S'hong'
p1891
sI1892
S'id'
p1892
sI1893
S'intended'
p1893
sI1894
S'ipod'
p1894
sI1895
S'item'
p1895
sI1896
S'knowing'
p1896
sI1897
S'kyushu'
p1897
sI1898
S'lead'
p1898
sI1899
S'learners'
p1899
sI1900
S'maintain'
p1900
sI1901
S'managed'
p1901
sI1902
S'materials'
p1902
sI1903
S'milk'
p1903
sI1904
S'mt'
p1904
sI1905
S'network'
p1905
sI1906
S'offered'
p1906
sI1907
S'originally'
p1907
sI1908
S'parent'
p1908
sI1909
S'passing'
p1909
sI1910
S'peace'
p1910
sI1911
S'pleasant'
p1911
sI1912
S'pot'
p1912
sI1913
S'presents'
p1913
sI1914
S'r'
p1914
sI1915
S'reached'
p1915
sI1916
S'requires'
p1916
sI1917
S'rules'
p1917
sI1918
S'salon'
p1918
sI1919
S'scenery'
p1919
sI1920
S'scenes'
p1920
sI1921
S'secret'
p1921
sI1922
S'session'
p1922
sI1923
S'simply'
p1923
sI1924
S'smoothly'
p1924
sI1925
S'sons'
p1925
sI1926
S'soy'
p1926
sI1927
S'speaks'
p1927
sI1928
S'streets'
p1928
sI1929
S'subway'
p1929
sI1930
S'suffer'
p1930
sI1931
S'suitable'
p1931
sI1932
S'sunshine'
p1932
sI1933
S'sweat'
p1933
sI1934
S'taipei'
p1934
sI1935
S'tank'
p1935
sI1936
S'teams'
p1936
sI1937
S'throughout'
p1937
sI1938
S'tool'
p1938
sI1939
S'tree'
p1939
sI1940
S'trust'
p1940
sI1941
S'version'
p1941
sI1942
S'wash'
p1942
sI1943
S'windy'
p1943
sI1944
S'wishes'
p1944
sI1945
S'worker'
p1945
sI1946
S'youth'
p1946
sI1947
S'22'
p1947
sI1948
S'access'
p1948
sI1949
S'active'
p1949
sI1950
S'adult'
p1950
sI1951
S'advantage'
p1951
sI1952
S'affected'
p1952
sI1953
S'animal'
p1953
sI1954
S'anniversary'
p1954
sI1955
S'applied'
p1955
sI1956
S'apply'
p1956
sI1957
S'arts'
p1957
sI1958
S'attractive'
p1958
sI1959
S'australian'
p1959
sI1960
S'avoid'
p1960
sI1961
S'bank'
p1961
sI1962
S'belong'
p1962
sI1963
S'bill'
p1963
sI1964
S'bloom'
p1964
sI1965
S'boat'
p1965
sI1966
S'bookstore'
p1966
sI1967
S'calls'
p1967
sI1968
S'calorie'
p1968
sI1969
S'ceiling'
p1969
sI1970
S'central'
p1970
sI1971
S'click'
p1971
sI1972
S'colleague'
p1972
sI1973
S'comic'
p1973
sI1974
S'commute'
p1974
sI1975
S'compare'
p1975
sI1976
S'correctly'
p1976
sI1977
S'cultures'
p1977
sI1978
S'customs'
p1978
sI1979
S'developed'
p1979
sI1980
S'discussed'
p1980
sI1981
S'dish'
p1981
sI1982
S'division'
p1982
sI1983
S'documents'
p1983
sI1984
S'dollar'
p1984
sI1985
S'earn'
p1985
sI1986
S'east'
p1986
sI1987
S'economics'
p1987
sI1988
S'falling'
p1988
sI1989
S'falls'
p1989
sI1990
S'forecast'
p1990
sI1991
S'foreigner'
p1991
sI1992
S'formal'
p1992
sI1993
S'fukuoka'
p1993
sI1994
S'genius'
p1994
sI1995
S'gentle'
p1995
sI1996
S'gorgeous'
p1996
sI1997
S'goro'
p1997
sI1998
S'gradually'
p1998
sI1999
S'grass'
p1999
sI2000
S'groups'
p2000
sI2001
S'highest'
p2001
sI2002
S'humid'
p2002
sI2003
S'ill'
p2003
sI2004
S'illness'
p2004
sI2005
S'indeed'
p2005
sI2006
S'jokes'
p2006
sI2007
S'key'
p2007
sI2008
S'learnt'
p2008
sI2009
S'letters'
p2009
sI2010
S'military'
p2010
sI2011
S'names'
p2011
sI2012
S'nap'
p2012
sI2013
S'nba'
p2013
sI2014
S'nearby'
p2014
sI2015
S'neither'
p2015
sI2016
S'nine'
p2016
sI2017
S'numbers'
p2017
sI2018
S'peaceful'
p2018
sI2019
S'pizza'
p2019
sI2020
S'pressure'
p2020
sI2021
S'prize'
p2021
sI2022
S'product'
p2022
sI2023
S'proficiency'
p2023
sI2024
S'proper'
p2024
sI2025
S'protect'
p2025
sI2026
S'pulled'
p2026
sI2027
S'random'
p2027
sI2028
S'require'
p2028
sI2029
S'san'
p2029
sI2030
S'sang'
p2030
sI2031
S'satisfaction'
p2031
sI2032
S'screen'
p2032
sI2033
S'sendai'
p2033
sI2034
S'services'
p2034
sI2035
S'shall'
p2035
sI2036
S'shirt'
p2036
sI2037
S'shock'
p2037
sI2038
S'skiing'
p2038
sI2039
S'sounded'
p2039
sI2040
S'spoken'
p2040
sI2041
S'square'
p2041
sI2042
S'stars'
p2042
sI2043
S'steps'
p2043
sI2044
S'stroke'
p2044
sI2045
S'successful'
p2045
sI2046
S'supper'
p2046
sI2047
S'surf'
p2047
sI2048
S'television'
p2048
sI2049
S'theory'
p2049
sI2050
S'thin'
p2050
sI2051
S'ticket'
p2051
sI2052
S'tom'
p2052
sI2053
S'touched'
p2053
sI2054
S'tour'
p2054
sI2055
S'tourists'
p2055
sI2056
S'types'
p2056
sI2057
S'understood'
p2057
sI2058
S'unhappy'
p2058
sI2059
S'variety'
p2059
sI2060
S'visiting'
p2060
sI2061
S'volunteer'
p2061
sI2062
S'warmer'
p2062
sI2063
S'wednesday'
p2063
sI2064
S'weird'
p2064
sI2065
S'wide'
p2065
sI2066
S'wore'
p2066
sI2067
S'19'
p2067
sI2068
S'4th'
p2068
sI2069
S'admit'
p2069
sI2070
S'annoying'
p2070
sI2071
S'anywhere'
p2071
sI2072
S'apart'
p2072
sI2073
S'ashamed'
p2073
sI2074
S'attracted'
p2074
sI2075
S'aunt'
p2075
sI2076
S'awkward'
p2076
sI2077
S'basically'
p2077
sI2078
S'bbq'
p2078
sI2079
S'bet'
p2079
sI2080
S'boys'
p2080
sI2081
S'bright'
p2081
sI2082
S'brown'
p2082
sI2083
S'build'
p2083
sI2084
S'campus'
p2084
sI2085
S'capital'
p2085
sI2086
S'cartoon'
p2086
sI2087
S'cds'
p2087
sI2088
S'certainly'
p2088
sI2089
S'chatted'
p2089
sI2090
S'cheer'
p2090
sI2091
S'chosen'
p2091
sI2092
S'circumstances'
p2092
sI2093
S'clothing'
p2093
sI2094
S'colder'
p2094
sI2095
S'confident'
p2095
sI2096
S'count'
p2096
sI2097
S'courses'
p2097
sI2098
S'cover'
p2098
sI2099
S'coworkers'
p2099
sI2100
S'cried'
p2100
sI2101
S'crisis'
p2101
sI2102
S'crow'
p2102
sI2103
S'crowds'
p2103
sI2104
S'damn'
p2104
sI2105
S'dentist'
p2105
sI2106
S'describe'
p2106
sI2107
S'diaries'
p2107
sI2108
S'difficulties'
p2108
sI2109
S'dropped'
p2109
sI2110
S'eight'
p2110
sI2111
S'explained'
p2111
sI2112
S'eye'
p2112
sI2113
S'filled'
p2113
sI2114
S'finger'
p2114
sI2115
S'firstly'
p2115
sI2116
S'fishing'
p2116
sI2117
S'flies'
p2117
sI2118
S'flying'
p2118
sI2119
S'forest'
p2119
sI2120
S'fukushima'
p2120
sI2121
S'fulfill'
p2121
sI2122
S'further'
p2122
sI2123
S'gifts'
p2123
sI2124
S'goods'
p2124
sI2125
S'grandmother'
p2125
sI2126
S'handle'
p2126
sI2127
S'hehe'
p2127
sI2128
S'hopefully'
p2128
sI2129
S'image'
p2129
sI2130
S'laughing'
p2130
sI2131
S'league'
p2131
sI2132
S'likely'
p2132
sI2133
S'lines'
p2133
sI2134
S'loss'
p2134
sI2135
S'maker'
p2135
sI2136
S'management'
p2136
sI2137
S'map'
p2137
sI2138
S'marathon'
p2138
sI2139
S'meets'
p2139
sI2140
S'mention'
p2140
sI2141
S'n'
p2141
sI2142
S'nest'
p2142
sI2143
S'net'
p2143
sI2144
S'nights'
p2144
sI2145
S'noodles'
p2145
sI2146
S'noon'
p2146
sI2147
S'normally'
p2147
sI2148
S'olympic'
p2148
sI2149
S'overtime'
p2149
sI2150
S'paint'
p2150
sI2151
S'participants'
p2151
sI2152
S'parts'
p2152
sI2153
S'passion'
p2153
sI2154
S'photoshop'
p2154
sI2155
S'physical'
p2155
sI2156
S'pity'
p2156
sI2157
S'podcasts'
p2157
sI2158
S'poems'
p2158
sI2159
S'politics'
p2159
sI2160
S'prevent'
p2160
sI2161
S'priority'
p2161
sI2162
S'professors'
p2162
sI2163
S'rare'
p2163
sI2164
S'regularly'
p2164
sI2165
S'resources'
p2165
sI2166
S'riding'
p2166
sI2167
S'rode'
p2167
sI2168
S'rule'
p2168
sI2169
S'sale'
p2169
sI2170
S'sapporo'
p2170
sI2171
S'sauce'
p2171
sI2172
S'scores'
p2172
sI2173
S'seat'
p2173
sI2174
S'served'
p2174
sI2175
S'shame'
p2175
sI2176
S'slowly'
p2176
sI2177
S'stone'
p2177
sI2178
S'submit'
p2178
sI2179
S'succeed'
p2179
sI2180
S'surely'
p2180
sI2181
S'surface'
p2181
sI2182
S'surfing'
p2182
sI2183
S'target'
p2183
sI2184
S'task'
p2184
sI2185
S'tastes'
p2185
sI2186
S'tasty'
p2186
sI2187
S'taxi'
p2187
sI2188
S'theme'
p2188
sI2189
S'throw'
p2189
sI2190
S'trains'
p2190
sI2191
S'traveled'
p2191
sI2192
S'tsunami'
p2192
sI2193
S'umbrella'
p2193
sI2194
S'users'
p2194
sI2195
S'valuable'
p2195
sI2196
S'vietnamese'
p2196
sI2197
S'voices'
p2197
sI2198
S'willing'
p2198
sI2199
S'workshop'
p2199
sI2200
S'writer'
p2200
sI2201
S'writting'
p2201
sI2202
S'yogurt'
p2202
sI2203
S'yours'
p2203
sI2204
S'zealand'
p2204
sI2205
S'80'
p2205
sI2206
S'accents'
p2206
sI2207
S'accepted'
p2207
sI2208
S'actions'
p2208
sI2209
S'actor'
p2209
sI2210
S'addicted'
p2210
sI2211
S'advantages'
p2211
sI2212
S'adventure'
p2212
sI2213
S'afford'
p2213
sI2214
S'aged'
p2214
sI2215
S'aim'
p2215
sI2216
S'akihabara'
p2216
sI2217
S'alarm'
p2217
sI2218
S'album'
p2218
sI2219
S'amazon'
p2219
sI2220
S'analysis'
p2220
sI2221
S'announced'
p2221
sI2222
S'anxious'
p2222
sI2223
S'appropriate'
p2223
sI2224
S'bars'
p2224
sI2225
S'beef'
p2225
sI2226
S'believed'
p2226
sI2227
S'birds'
p2227
sI2228
S'blogs'
p2228
sI2229
S'bonus'
p2229
sI2230
S'btw'
p2230
sI2231
S'bush'
p2231
sI2232
S'calligraphy'
p2232
sI2233
S'cameras'
p2233
sI2234
S'cant'
p2234
sI2235
S'causes'
p2235
sI2236
S'cellphone'
p2236
sI2237
S'cinema'
p2237
sI2238
S'clubs'
p2238
sI2239
S'colour'
p2239
sI2240
S'communicating'
p2240
sI2241
S'composition'
p2241
sI2242
S'consists'
p2242
sI2243
S'contrary'
p2243
sI2244
S'cookies'
p2244
sI2245
S'cooler'
p2245
sI2246
S'courage'
p2246
sI2247
S'coworker'
p2247
sI2248
S'cultural'
p2248
sI2249
S'curtains'
p2249
sI2250
S'dairy'
p2250
sI2251
S'damage'
p2251
sI2252
S'delivery'
p2252
sI2253
S'depression'
p2253
sI2254
S'detail'
p2254
sI2255
S'developing'
p2255
sI2256
S'dreamed'
p2256
sI2257
S'drum'
p2257
sI2258
S'dry'
p2258
sI2259
S'earthquakes'
p2259
sI2260
S'elderly'
p2260
sI2261
S'electronic'
p2261
sI2262
S'empty'
p2262
sI2263
S'encourage'
p2263
sI2264
S'evaluation'
p2264
sI2265
S'exists'
p2265
sI2266
S'fail'
p2266
sI2267
S'fallen'
p2267
sI2268
S'fill'
p2268
sI2269
S'forgotten'
p2269
sI2270
S'fourth'
p2270
sI2271
S'friendship'
p2271
sI2272
S'g'
p2272
sI2273
S'glass'
p2273
sI2274
S'grateful'
p2274
sI2275
S'grown'
p2275
sI2276
S'habit'
p2276
sI2277
S'handsome'
p2277
sI2278
S'hat'
p2278
sI2279
S'helping'
p2279
sI2280
S'hoping'
p2280
sI2281
S'housework'
p2281
sI2282
S'hung'
p2282
sI2283
S'improved'
p2283
sI2284
S'improving'
p2284
sI2285
S'instant'
p2285
sI2286
S'internship'
p2286
sI2287
S'introducing'
p2287
sI2288
S'judge'
p2288
sI2289
S'kanagawa'
p2289
sI2290
S'king'
p2290
sI2291
S'koreans'
p2291
sI2292
S'lecturer'
p2292
sI2293
S'led'
p2293
sI2294
S'lights'
p2294
sI2295
S'link'
p2295
sI2296
S'loves'
p2296
sI2297
S'loving'
p2297
sI2298
S'luckily'
p2298
sI2299
S'majoring'
p2299
sI2300
S'male'
p2300
sI2301
S'material'
p2301
sI2302
S'meanings'
p2302
sI2303
S'memorize'
p2303
sI2304
S'menu'
p2304
sI2305
S'mountains'
p2305
sI2306
S'movement'
p2306
sI2307
S'neighbors'
p2307
sI2308
S'noisy'
p2308
sI2309
S'notebook'
p2309
sI2310
S'nursery'
p2310
sI2311
S'oil'
p2311
sI2312
S'operation'
p2312
sI2313
S'ordinary'
p2313
sI2314
S'overcome'
p2314
sI2315
S'pair'
p2315
sI2316
S'papers'
p2316
sI2317
S'paris'
p2317
sI2318
S'participated'
p2318
sI2319
S'patients'
p2319
sI2320
S'philippines'
p2320
sI2321
S'plane'
p2321
sI2322
S'plate'
p2322
sI2323
S'pleasure'
p2323
sI2324
S'plus'
p2324
sI2325
S'pocket'
p2325
sI2326
S'poem'
p2326
sI2327
S'policy'
p2327
sI2328
S'practiced'
p2328
sI2329
S'prices'
p2329
sI2330
S'pronounce'
p2330
sI2331
S'purchase'
p2331
sI2332
S'raising'
p2332
sI2333
S'rate'
p2333
sI2334
S'recognized'
p2334
sI2335
S'refrigerator'
p2335
sI2336
S'reminds'
p2336
sI2337
S'reported'
p2337
sI2338
S'required'
p2338
sI2339
S'responsibility'
p2339
sI2340
S'role'
p2340
sI2341
S'rural'
p2341
sI2342
S'russia'
p2342
sI2343
S'sadness'
p2343
sI2344
S'sand'
p2344
sI2345
S'santa'
p2345
sI2346
S'sensitive'
p2346
sI2347
S'shanghai'
p2347
sI2348
S'signed'
p2348
sI2349
S'silent'
p2349
sI2350
S'singers'
p2350
sI2351
S'smell'
p2351
sI2352
S'snowboarding'
p2352
sI2353
S'spain'
p2353
sI2354
S'spirit'
p2354
sI2355
S'spite'
p2355
sI2356
S'stadium'
p2356
sI2357
S'star'
p2357
sI2358
S'stock'
p2358
sI2359
S'stood'
p2359
sI2360
S'styles'
p2360
sI2361
S'subtitles'
p2361
sI2362
S'sugar'
p2362
sI2363
S'surgery'
p2363
sI2364
S'surprising'
p2364
sI2365
S'texas'
p2365
sI2366
S'textbook'
p2366
sI2367
S'thirty'
p2367
sI2368
S'thousand'
p2368
sI2369
S'tiny'
p2369
sI2370
S'tiring'
p2370
sI2371
S'toward'
p2371
sI2372
S'translating'
p2372
sI2373
S'trips'
p2373
sI2374
S'typing'
p2374
sI2375
S'unknown'
p2375
sI2376
S'usage'
p2376
sI2377
S'visa'
p2377
sI2378
S'volleyball'
p2378
sI2379
S'vs'
p2379
sI2380
S'wikipedia'
p2380
sI2381
S'windows'
p2381
sI2382
S'yummy'
p2382
sI2383
S'1000'
p2383
sI2384
S'2008'
p2384
sI2385
S'26'
p2385
sI2386
S'90'
p2386
sI2387
S'ache'
p2387
sI2388
S'address'
p2388
sI2389
S'adults'
p2389
sI2390
S'aging'
p2390
sI2391
S'alice'
p2391
sI2392
S'allow'
p2392
sI2393
S'appeared'
p2393
sI2394
S'appointment'
p2394
sI2395
S'arabic'
p2395
sI2396
S'arrested'
p2396
sI2397
S'attack'
p2397
sI2398
S'attending'
p2398
sI2399
S'available'
p2399
sI2400
S'bakery'
p2400
sI2401
S'banana'
p2401
sI2402
S'barbecue'
p2402
sI2403
S'beijing'
p2403
sI2404
S'bible'
p2404
sI2405
S'birth'
p2405
sI2406
S'cabinet'
p2406
sI2407
S'cards'
p2407
sI2408
S'cases'
p2408
sI2409
S'chan'
p2409
sI2410
S'checking'
p2410
sI2411
S'cherish'
p2411
sI2412
S'citizens'
p2412
sI2413
S'classroom'
p2413
sI2414
S'cleaned'
p2414
sI2415
S'cleaning'
p2415
sI2416
S'climb'
p2416
sI2417
S'climbing'
p2417
sI2418
S'complete'
p2418
sI2419
S'completed'
p2419
sI2420
S'conditioner'
p2420
sI2421
S'considered'
p2421
sI2422
S'construction'
p2422
sI2423
S'degrees'
p2423
sI2424
S'described'
p2424
sI2425
S'destroyed'
p2425
sI2426
S'disadvantages'
p2426
sI2427
S'dying'
p2427
sI2428
S'ears'
p2428
sI2429
S'efforts'
p2429
sI2430
S'embarrassed'
p2430
sI2431
S'encouraged'
p2431
sI2432
S'engine'
p2432
sI2433
S'entering'
p2433
sI2434
S'episode'
p2434
sI2435
S'era'
p2435
sI2436
S'escaped'
p2436
sI2437
S'exist'
p2437
sI2438
S'expand'
p2438
sI2439
S'fear'
p2439
sI2440
S'features'
p2440
sI2441
S'feed'
p2441
sI2442
S'fields'
p2442
sI2443
S'financial'
p2443
sI2444
S'fond'
p2444
sI2445
S'fully'
p2445
sI2446
S'generally'
p2446
sI2447
S'generation'
p2447
sI2448
S'grand'
p2448
sI2449
S'greatest'
p2449
sI2450
S'growth'
p2450
sI2451
S'h'
p2451
sI2452
S'haiku'
p2452
sI2453
S'happiest'
p2453
sI2454
S'haruki'
p2454
sI2455
S'hawaii'
p2455
sI2456
S'heavily'
p2456
sI2457
S'hell'
p2457
sI2458
S'heritage'
p2458
sI2459
S'hip'
p2459
sI2460
S'hm'
p2460
sI2461
S'holding'
p2461
sI2462
S'hundred'
p2462
sI2463
S'imagined'
p2463
sI2464
S'import'
p2464
sI2465
S'innocent'
p2465
sI2466
S'jumped'
p2466
sI2467
S'kilometers'
p2467
sI2468
S'kindness'
p2468
sI2469
S'kittens'
p2469
sI2470
S'km'
p2470
sI2471
S'landlord'
p2471
sI2472
S'lang8'
p2472
sI2473
S'lasted'
p2473
sI2474
S'leading'
p2474
sI2475
S'license'
p2475
sI2476
S'mandarin'
p2476
sI2477
S'matters'
p2477
sI2478
S'meant'
p2478
sI2479
S'medal'
p2479
sI2480
S'mid'
p2480
sI2481
S'minute'
p2481
sI2482
S'modest'
p2482
sI2483
S'murakami'
p2483
sI2484
S'muscles'
p2484
sI2485
S'museum'
p2485
sI2486
S'mysterious'
p2486
sI2487
S'nagoya'
p2487
sI2488
S'nearest'
p2488
sI2489
S'neck'
p2489
sI2490
S'niece'
p2490
sI2491
S'nz'
p2491
sI2492
S'obviously'
p2492
sI2493
S'occurred'
p2493
sI2494
S'octopus'
p2494
sI2495
S'opinions'
p2495
sI2496
S'organization'
p2496
sI2497
S'paintball'
p2497
sI2498
S'pan'
p2498
sI2499
S'pants'
p2499
sI2500
S'paragraph'
p2500
sI2501
S'partners'
p2501
sI2502
S'passage'
p2502
sI2503
S'pedometer'
p2503
sI2504
S'personally'
p2504
sI2505
S'pitcher'
p2505
sI2506
S'plays'
p2506
sI2507
S'political'
p2507
sI2508
S'posted'
p2508
sI2509
S'potato'
p2509
sI2510
S'potatoes'
p2510
sI2511
S'powerful'
p2511
sI2512
S'profile'
p2512
sI2513
S'promise'
p2513
sI2514
S'properly'
p2514
sI2515
S'pudding'
p2515
sI2516
S'raise'
p2516
sI2517
S'rarely'
p2517
sI2518
S'reference'
p2518
sI2519
S'refresh'
p2519
sI2520
S'regard'
p2520
sI2521
S'release'
p2521
sI2522
S'replied'
p2522
sI2523
S'request'
p2523
sI2524
S'resume'
p2524
sI2525
S'robot'
p2525
sI2526
S'round'
p2526
sI2527
S'runs'
p2527
sI2528
S'salary'
p2528
sI2529
S'script'
p2529
sI2530
S'seats'
p2530
sI2531
S'secondly'
p2531
sI2532
S'selling'
p2532
sI2533
S'shrine'
p2533
sI2534
S'sings'
p2534
sI2535
S'soup'
p2535
sI2536
S'source'
p2536
sI2537
S'spelling'
p2537
sI2538
S'stands'
p2538
sI2539
S'steak'
p2539
sI2540
S'stick'
p2540
sI2541
S'stocks'
p2541
sI2542
S'strict'
p2542
sI2543
S'struggling'
p2543
sI2544
S'stuck'
p2544
sI2545
S'suit'
p2545
sI2546
S'surrounded'
p2546
sI2547
S'ta'
p2547
sI2548
S'tall'
p2548
sI2549
S'tasted'
p2549
sI2550
S'teaches'
p2550
sI2551
S'technical'
p2551
sI2552
S'teeth'
p2552
sI2553
S'textbooks'
p2553
sI2554
S'texts'
p2554
sI2555
S'theater'
p2555
sI2556
S'thick'
p2556
sI2557
S'thief'
p2557
sI2558
S'throat'
p2558
sI2559
S'thunder'
p2559
sI2560
S'tips'
p2560
sI2561
S'tooth'
p2561
sI2562
S'turkey'
p2562
sI2563
S'unlike'
p2563
sI2564
S'unnecessary'
p2564
sI2565
S've'
p2565
sI2566
S'videos'
p2566
sI2567
S'village'
p2567
sI2568
S'waited'
p2568
sI2569
S'waves'
p2569
sI2570
S'wisdom'
p2570
sI2571
S'yard'
p2571
sI2572
S'yellow'
p2572
sI2573
S'3rd'
p2573
sI2574
S'60'
p2574
sI2575
S'70'
p2575
sI2576
S'absent'
p2576
sI2577
S'afterwards'
p2577
sI2578
S'agreed'
p2578
sI2579
S'apologize'
p2579
sI2580
S'appears'
p2580
sI2581
S'appreciated'
p2581
sI2582
S'arm'
p2582
sI2583
S'asks'
p2583
sI2584
S'assignment'
p2584
sI2585
S'attached'
p2585
sI2586
S'automatically'
p2586
sI2587
S'background'
p2587
sI2588
S'bands'
p2588
sI2589
S'base'
p2589
sI2590
S'battle'
p2590
sI2591
S'bird'
p2591
sI2592
S'blowing'
p2592
sI2593
S'bone'
p2593
sI2594
S'borrow'
p2594
sI2595
S'bottom'
p2595
sI2596
S'branches'
p2596
sI2597
S'breath'
p2597
sI2598
S'brings'
p2598
sI2599
S'brush'
p2599
sI2600
S'celebrated'
p2600
sI2601
S'classmate'
p2601
sI2602
S'closer'
p2602
sI2603
S'colored'
p2603
sI2604
S'compositions'
p2604
sI2605
S'computers'
p2605
sI2606
S'concept'
p2606
sI2607
S'concern'
p2607
sI2608
S'connected'
p2608
sI2609
S'continuing'
p2609
sI2610
S'correction'
p2610
sI2611
S'costumes'
p2611
sI2612
S'court'
p2612
sI2613
S'creative'
p2613
sI2614
S'cube'
p2614
sI2615
S'debate'
p2615
sI2616
S'desu'
p2616
sI2617
S'device'
p2617
sI2618
S'dialogue'
p2618
sI2619
S'dirty'
p2619
sI2620
S'disease'
p2620
sI2621
S'display'
p2621
sI2622
S'doctors'
p2622
sI2623
S'doremon'
p2623
sI2624
S'dried'
p2624
sI2625
S'drop'
p2625
sI2626
S'drums'
p2626
sI2627
S'dull'
p2627
sI2628
S'effectively'
p2628
sI2629
S'efficient'
p2629
sI2630
S'eiken'
p2630
sI2631
S'envy'
p2631
sI2632
S'escape'
p2632
sI2633
S'evidence'
p2633
sI2634
S'factories'
p2634
sI2635
S'fans'
p2635
sI2636
S'farm'
p2636
sI2637
S'favor'
p2637
sI2638
S'feb'
p2638
sI2639
S'fewer'
p2639
sI2640
S'file'
p2640
sI2641
S'fixed'
p2641
sI2642
S'flesh'
p2642
sI2643
S'fluent'
p2643
sI2644
S'frustrated'
p2644
sI2645
S'fundamental'
p2645
sI2646
S'gather'
p2646
sI2647
S'gathered'
p2647
sI2648
S'ginza'
p2648
sI2649
S'gloomy'
p2649
sI2650
S'goldfish'
p2650
sI2651
S'graduating'
p2651
sI2652
S'grandma'
p2652
sI2653
S'greeting'
p2653
sI2654
S'guide'
p2654
sI2655
S'gun'
p2655
sI2656
S'gundam'
p2656
sI2657
S'happening'
p2657
sI2658
S'height'
p2658
sI2659
S'hint'
p2659
sI2660
S'horse'
p2660
sI2661
S'housewife'
p2661
sI2662
S'ielts'
p2662
sI2663
S'imagination'
p2663
sI2664
S'importance'
p2664
sI2665
S'incident'
p2665
sI2666
S'industry'
p2666
sI2667
S'institute'
p2667
sI2668
S'instruments'
p2668
sI2669
S'invite'
p2669
sI2670
S'jumping'
p2670
sI2671
S'kanto'
p2671
sI2672
S'kawasaki'
p2672
sI2673
S'kindly'
p2673
sI2674
S'lake'
p2674
sI2675
S'lied'
p2675
sI2676
S'lover'
p2676
sI2677
S'magic'
p2677
sI2678
S'manners'
p2678
sI2679
S'mexico'
p2679
sI2680
S'million'
p2680
sI2681
S'minds'
p2681
sI2682
S'mirror'
p2682
sI2683
S'model'
p2683
sI2684
S'mosquitoes'
p2684
sI2685
S'mostly'
p2685
sI2686
S'motorcycle'
p2686
sI2687
S'newspapers'
p2687
sI2688
S'nickname'
p2688
sI2689
S'nightmare'
p2689
sI2690
S'noodle'
p2690
sI2691
S'obama'
p2691
sI2692
S'obvious'
p2692
sI2693
S'ocean'
p2693
sI2694
S'opposite'
p2694
sI2695
S'osechi'
p2695
sI2696
S'overnight'
p2696
sI2697
S'pace'
p2697
sI2698
S'pages'
p2698
sI2699
S'painted'
p2699
sI2700
S'particularly'
p2700
sI2701
S'parties'
p2701
sI2702
S'path'
p2702
sI2703
S'personnel'
p2703
sI2704
S'peter'
p2704
sI2705
S'phones'
p2705
sI2706
S'physics'
p2706
sI2707
S'plastic'
p2707
sI2708
S'polaroid'
p2708
sI2709
S'posting'
p2709
sI2710
S'preparation'
p2710
sI2711
S'proverb'
p2711
sI2712
S'provided'
p2712
sI2713
S'rabbit'
p2713
sI2714
S'rained'
p2714
sI2715
S'raw'
p2715
sI2716
S'recorded'
p2716
sI2717
S'recorder'
p2717
sI2718
S'refreshed'
p2718
sI2719
S'regarding'
p2719
sI2720
S'regards'
p2720
sI2721
S'reminded'
p2721
sI2722
S'resort'
p2722
sI2723
S'response'
p2723
sI2724
S'rinfone'
p2724
sI2725
S'rise'
p2725
sI2726
S'roll'
p2726
sI2727
S'roommate'
p2727
sI2728
S'rough'
p2728
sI2729
S'routine'
p2729
sI2730
S'salad'
p2730
sI2731
S'scale'
p2731
sI2732
S'section'
p2732
sI2733
S'serve'
p2733
sI2734
S'shizuoka'
p2734
sI2735
S'shoulders'
p2735
sI2736
S'significant'
p2736
sI2737
S'sixth'
p2737
sI2738
S'smaller'
p2738
sI2739
S'somewhat'
p2739
sI2740
S'strangers'
p2740
sI2741
S'strength'
p2741
sI2742
S'structure'
p2742
sI2743
S'subculture'
p2743
sI2744
S'suggested'
p2744
sI2745
S'summary'
p2745
sI2746
S'tasks'
p2746
sI2747
S'tax'
p2747
sI2748
S'telephone'
p2748
sI2749
S'telling'
p2749
sI2750
S'titles'
p2750
sI2751
S'tohoku'
p2751
sI2752
S'toilet'
p2752
sI2753
S'tourist'
p2753
sI2754
S'track'
p2754
sI2755
S'trade'
p2755
sI2756
S'trial'
p2756
sI2757
S'troubles'
p2757
sI2758
S'tweet'
p2758
sI2759
S'twenty'
p2759
sI2760
S'ugly'
p2760
sI2761
S'umm'
p2761
sI2762
S'uncle'
p2762
sI2763
S'unless'
p2763
sI2764
S'useless'
p2764
sI2765
S'v'
p2765
sI2766
S'verb'
p2766
sI2767
S'visual'
p2767
sI2768
S'wall'
p2768
sI2769
S'watashi'
p2769
sI2770
S'watermelon'
p2770
sI2771
S'yahoo'
p2771
sI2772
S'00pm'
p2772
sI2773
S'15th'
p2773
sI2774
S'27'
p2774
sI2775
S'2chan'
p2775
sI2776
S'7th'
p2776
sI2777
S'abilities'
p2777
sI2778
S'adapt'
p2778
sI2779
S'advanced'
p2779
sI2780
S'al'
p2780
sI2781
S'alot'
p2781
sI2782
S'annoyed'
p2782
sI2783
S'anxiety'
p2783
sI2784
S'apparently'
p2784
sI2785
S'applications'
p2785
sI2786
S'architecture'
p2786
sI2787
S'artists'
p2787
sI2788
S'assignments'
p2788
sI2789
S'awake'
p2789
sI2790
S'bags'
p2790
sI2791
S'balloon'
p2791
sI2792
S'balls'
p2792
sI2793
S'basis'
p2793
sI2794
S'bass'
p2794
sI2795
S'begun'
p2795
sI2796
S'behave'
p2796
sI2797
S'bell'
p2797
sI2798
S'belonged'
p2798
sI2799
S'benefit'
p2799
sI2800
S'bitter'
p2800
sI2801
S'bon'
p2801
sI2802
S'booth'
p2802
sI2803
S'brilliant'
p2803
sI2804
S'buch'
p2804
sI2805
S'bug'
p2805
sI2806
S'burger'
p2806
sI2807
S'button'
p2807
sI2808
S'calories'
p2808
sI2809
S'cancel'
p2809
sI2810
S'cantonese'
p2810
sI2811
S'carrying'
p2811
sI2812
S'ceo'
p2812
sI2813
S'childhood'
p2813
sI2814
S'chocolates'
p2814
sI2815
S'choices'
p2815
sI2816
S'circle'
p2816
sI2817
S'clip'
p2817
sI2818
S'coach'
p2818
sI2819
S'coins'
p2819
sI2820
S'collected'
p2820
sI2821
S'colorful'
p2821
sI2822
S'coluche'
p2822
sI2823
S'command'
p2823
sI2824
S'complicated'
p2824
sI2825
S'comprehension'
p2825
sI2826
S'concerts'
p2826
sI2827
S'contacted'
p2827
sI2828
S'contents'
p2828
sI2829
S'creativity'
p2829
sI2830
S'cutting'
p2830
sI2831
S'cuz'
p2831
sI2832
S'damaged'
p2832
sI2833
S'data'
p2833
sI2834
S'deed'
p2834
sI2835
S'delighted'
p2835
sI2836
S'depth'
p2836
sI2837
S'designer'
p2837
sI2838
S'determined'
p2838
sI2839
S'dinosaurs'
p2839
sI2840
S'direction'
p2840
sI2841
S'discussion'
p2841
sI2842
S'dolls'
p2842
sI2843
S'donkey'
p2843
sI2844
S'draft'
p2844
sI2845
S'drew'
p2845
sI2846
S'drug'
p2846
sI2847
S'duty'
p2847
sI2848
S'ear'
p2848
sI2849
S'educational'
p2849
sI2850
S'egypt'
p2850
sI2851
S'elder'
p2851
sI2852
S'elements'
p2852
sI2853
S'employee'
p2853
sI2854
S'employment'
p2854
sI2855
S'entire'
p2855
sI2856
S'errand'
p2856
sI2857
S'errors'
p2857
sI2858
S'exchanged'
p2858
sI2859
S'exchanging'
p2859
sI2860
S'expectation'
p2860
sI2861
S'explaining'
p2861
sI2862
S'explanation'
p2862
sI2863
S'extent'
p2863
sI2864
S'faced'
p2864
sI2865
S'fantasy'
p2865
sI2866
S'fifth'
p2866
sI2867
S'files'
p2867
sI2868
S'fingers'
p2868
sI2869
S'flat'
p2869
sI2870
S'flights'
p2870
sI2871
S'flow'
p2871
sI2872
S'fly'
p2872
sI2873
S'foolish'
p2873
sI2874
S'format'
p2874
sI2875
S'forms'
p2875
sI2876
S'foundation'
p2876
sI2877
S'gaining'
p2877
sI2878
S'genpet'
p2878
sI2879
S'gloves'
p2879
sI2880
S'grandfather'
p2880
sI2881
S'grandparent'
p2881
sI2882
S'greatly'
p2882
sI2883
S'grilled'
p2883
sI2884
S'grocery'
p2884
sI2885
S'guests'
p2885
sI2886
S'hall'
p2886
sI2887
S'hanbok'
p2887
sI2888
S'handed'
p2888
sI2889
S'happily'
p2889
sI2890
S'heartbeat'
p2890
sI2891
S'herself'
p2891
sI2892
S'humans'
p2892
sI2893
S'hurts'
p2893
sI2894
S'immigrants'
p2894
sI2895
S'improvement'
p2895
sI2896
S'include'
p2896
sI2897
S'includes'
p2897
sI2898
S'injured'
p2898
sI2899
S'installed'
p2899
sI2900
S'iphone4'
p2900
sI2901
S'islands'
p2901
sI2902
S'jack'
p2902
sI2903
S'jam'
p2903
sI2904
S'jesus'
p2904
sI2905
S'joining'
p2905
sI2906
S'juice'
p2906
sI2907
S'juicy'
p2907
sI2908
S'kamakura'
p2908
sI2909
S'keeps'
p2909
sI2910
S'kinda'
p2910
sI2911
S'koma'
p2911
sI2912
S'ladies'
p2912
sI2913
S'landscape'
p2913
sI2914
S'larger'
p2914
sI2915
S'laundry'
p2915
sI2916
S'leaning'
p2916
sI2917
S'learner'
p2917
sI2918
S'legs'
p2918
sI2919
S'lens'
p2919
sI2920
S'lettuce'
p2920
sI2921
S'lifestyle'
p2921
sI2922
S'literally'
p2922
sI2923
S'losing'
p2923
sI2924
S'loud'
p2924
sI2925
S'lovers'
p2925
sI2926
S'mad'
p2926
sI2927
S'mate'
p2927
sI2928
S'meanwhile'
p2928
sI2929
S'mentally'
p2929
sI2930
S'messenger'
p2930
sI2931
S'metal'
p2931
sI2932
S'microsoft'
p2932
sI2933
S'min'
p2933
sI2934
S'minister'
p2934
sI2935
S'missing'
p2935
sI2936
S'monitor'
p2936
sI2937
S'monster'
p2937
sI2938
S'naturally'
p2938
sI2939
S'neighborhood'
p2939
sI2940
S'northern'
p2940
sI2941
S'observe'
p2941
sI2942
S'olympics'
p2942
sI2943
S'oneself'
p2943
sI2944
S'optimistic'
p2944
sI2945
S'os'
p2945
sI2946
S'otherwise'
p2946
sI2947
S'percent'
p2947
sI2948
S'phillies'
p2948
sI2949
S'physically'
p2949
sI2950
S'pink'
p2950
sI2951
S'primary'
p2951
sI2952
S'proofread'
p2952
sI2953
S'proposed'
p2953
sI2954
S'punk'
p2954
sI2955
S'pure'
p2955
sI2956
S'push'
p2956
sI2957
S'quake'
p2957
sI2958
S'rapidly'
p2958
sI2959
S'recognize'
p2959
sI2960
S'records'
p2960
sI2961
S'recovered'
p2961
sI2962
S'register'
p2962
sI2963
S'relations'
p2963
sI2964
S'released'
p2964
sI2965
S'relevant'
p2965
sI2966
S'remioromen'
p2966
sI2967
S'rented'
p2967
sI2968
S'responsible'
p2968
sI2969
S'rolls'
p2969
sI2970
S'romantic'
p2970
sI2971
S'rome'
p2971
sI2972
S'route'
p2972
sI2973
S'rude'
p2973
sI2974
S'runners'
p2974
sI2975
S'runny'
p2975
sI2976
S'safely'
p2976
sI2977
S'samurai'
p2977
sI2978
S'scholarship'
p2978
sI2979
S'searched'
p2979
sI2980
S'seconds'
p2980
sI2981
S'sector'
p2981
sI2982
S'seldom'
p2982
sI2983
S'selected'
p2983
sI2984
S'selengeti'
p2984
sI2985
S'sexy'
p2985
sI2986
S'shaped'
p2986
sI2987
S'sharp'
p2987
sI2988
S'shift'
p2988
sI2989
S'shinkansen'
p2989
sI2990
S'shirts'
p2990
sI2991
S'shoot'
p2991
sI2992
S'sigh'
p2992
sI2993
S'sink'
p2993
sI2994
S'smiled'
p2994
sI2995
S'snowboard'
p2995
sI2996
S'snowed'
p2996
sI2997
S'sofa'
p2997
sI2998
S'sony'
p2998
sI2999
S'specific'
p2999
sI3000
S'spicy'
p3000
sI3001
S'stranger'
p3001
sI3002
S'sudden'
p3002
sI3003
S'supporting'
p3003
sI3004
S'symbol'
p3004
sI3005
S'symptoms'
p3005
sI3006
S'systems'
p3006
sI3007
S'taiwanese'
p3007
sI3008
S'thousands'
p3008
sI3009
S'tiger'
p3009
sI3010
S'tim'
p3010
sI3011
S'touching'
p3011
sI3012
S'traditions'
p3012
sI3013
S'transfer'
p3013
sI3014
S'travelling'
p3014
sI3015
S'treated'
p3015
sI3016
S'tremendous'
p3016
sI3017
S'troublesome'
p3017
sI3018
S'tuition'
p3018
sI3019
S'tulips'
p3019
sI3020
S'turns'
p3020
sI3021
S'um'
p3021
sI3022
S'unexpected'
p3022
sI3023
S'unexpectedly'
p3023
sI3024
S'uniqlo'
p3024
sI3025
S'upon'
p3025
sI3026
S'value'
p3026
sI3027
S'via'
p3027
sI3028
S'views'
p3028
sI3029
S'vocaloid'
p3029
sI3030
S'volume'
p3030
sI3031
S'waking'
p3031
sI3032
S'washed'
p3032
sI3033
S'wild'
p3033
sI3034
S'wood'
p3034
sI3035
S'xxx'
p3035
sI3036
S'youngest'
p3036
sI3037
S"'t"
p3037
sI3038
S'10th'
p3038
sI3039
S'19th'
p3039
sI3040
S'200'
p3040
sI3041
S'23rd'
p3041
sI3042
S'28'
p3042
sI3043
S'3000'
p3043
sI3044
S'30am'
p3044
sI3045
S'30th'
p3045
sI3046
S'45'
p3046
sI3047
S'500'
p3047
sI3048
S'accessories'
p3048
sI3049
S'acting'
p3049
sI3050
S'actress'
p3050
sI3051
S'added'
p3051
sI3052
S'adopted'
p3052
sI3053
S'advertisement'
p3053
sI3054
S'advised'
p3054
sI3055
S'affect'
p3055
sI3056
S'ahead'
p3056
sI3057
S'alive'
p3057
sI3058
S'allows'
p3058
sI3059
S'amazed'
p3059
sI3060
S'amusement'
p3060
sI3061
S'angle'
p3061
sI3062
S'annual'
p3062
sI3063
S'appear'
p3063
sI3064
S'army'
p3064
sI3065
S'attacked'
p3065
sI3066
S'attract'
p3066
sI3067
S'authors'
p3067
sI3068
S'awhile'
p3068
sI3069
S'bacon'
p3069
sI3070
S'badly'
p3070
sI3071
S'baked'
p3071
sI3072
S'ballet'
p3072
sI3073
S'barcelona'
p3073
sI3074
S'bay'
p3074
sI3075
S'beat'
p3075
sI3076
S'beating'
p3076
sI3077
S'bicycles'
p3077
sI3078
S'bilingual'
p3078
sI3079
S'blame'
p3079
sI3080
S'bloody'
p3080
sI3081
S'bother'
p3081
sI3082
S'brazil'
p3082
sI3083
S'breast'
p3083
sI3084
S'breeze'
p3084
sI3085
S'bridge'
p3085
sI3086
S'browsing'
p3086
sI3087
S'bune'
p3087
sI3088
S'burden'
p3088
sI3089
S'capability'
p3089
sI3090
S'cartoons'
p3090
sI3091
S'cash'
p3091
sI3092
S'century'
p3092
sI3093
S'challenges'
p3093
sI3094
S'chapter'
p3094
sI3095
S'checkup'
p3095
sI3096
S'cheerful'
p3096
sI3097
S'chiba'
p3097
sI3098
S'chile'
p3098
sI3099
S'chilly'
p3099
sI3100
S'chop'
p3100
sI3101
S'chores'
p3101
sI3102
S'christian'
p3102
sI3103
S'claim'
p3103
sI3104
S'clerk'
p3104
sI3105
S'clinic'
p3105
sI3106
S'clouds'
p3106
sI3107
S'clutch'
p3107
sI3108
S'cm'
p3108
sI3109
S'cnn'
p3109
sI3110
S'cocoa'
p3110
sI3111
S'coin'
p3111
sI3112
S'comedy'
p3112
sI3113
S'concentration'
p3113
sI3114
S'conditions'
p3114
sI3115
S'confirm'
p3115
sI3116
S'connect'
p3116
sI3117
S'connection'
p3117
sI3118
S'consumption'
p3118
sI3119
S'contain'
p3119
sI3120
S'containing'
p3120
sI3121
S'continues'
p3121
sI3122
S'converse'
p3122
sI3123
S'copy'
p3123
sI3124
S'costume'
p3124
sI3125
S'credit'
p3125
sI3126
S'cries'
p3126
sI3127
S'crossing'
p3127
sI3128
S'cuisine'
p3128
sI3129
S'currency'
p3129
sI3130
S'custom'
p3130
sI3131
S'dallas'
p3131
sI3132
S'danish'
p3132
sI3133
S'daytime'
p3133
sI3134
S'decade'
p3134
sI3135
S'decent'
p3135
sI3136
S'decisions'
p3136
sI3137
S'deer'
p3137
sI3138
S'defeat'
p3138
sI3139
S'demands'
p3139
sI3140
S'designed'
p3140
sI3141
S'designs'
p3141
sI3142
S'desire'
p3142
sI3143
S'desperately'
p3143
sI3144
S'didn'
p3144
sI3145
S'digitalization'
p3145
sI3146
S'dim'
p3146
sI3147
S'disk'
p3147
sI3148
S'dislike'
p3148
sI3149
S'divided'
p3149
sI3150
S'document'
p3150
sI3151
S'downtown'
p3151
sI3152
S'dreaming'
p3152
sI3153
S'efficiently'
p3153
sI3154
S'election'
p3154
sI3155
S'electrical'
p3155
sI3156
S'embassy'
p3156
sI3157
S'emergency'
p3157
sI3158
S'emo'
p3158
sI3159
S'enrolled'
p3159
sI3160
S'entertainment'
p3160
sI3161
S'enthusiasm'
p3161
sI3162
S'esl'
p3162
sI3163
S'established'
p3163
sI3164
S'everytime'
p3164
sI3165
S'examinations'
p3165
sI3166
S'exercises'
p3166
sI3167
S'facing'
p3167
sI3168
S'faculty'
p3168
sI3169
S'ff4'
p3169
sI3170
S'fiji'
p3170
sI3171
S'finance'
p3171
sI3172
S'flexible'
p3172
sI3173
S'flour'
p3173
sI3174
S'fm'
p3174
sI3175
S'focused'
p3175
sI3176
S'followed'
p3176
sI3177
S'forced'
p3177
sI3178
S'forgive'
p3178
sI3179
S'forth'
p3179
sI3180
S'fortune'
p3180
sI3181
S'freely'
p3181
sI3182
S'fries'
p3182
sI3183
S'frist'
p3183
sI3184
S'functions'
p3184
sI3185
S'fund'
p3185
sI3186
S'funeral'
p3186
sI3187
S'ga'
p3187
sI3188
S'gap'
p3188
sI3189
S'genpets'
p3189
sI3190
S'genre'
p3190
sI3191
S'ginger'
p3191
sI3192
S'goodbye'
p3192
sI3193
S'governments'
p3193
sI3194
S'graduates'
p3194
sI3195
S'guam'
p3195
sI3196
S'guest'
p3196
sI3197
S'happier'
p3197
sI3198
S'harlem'
p3198
sI3199
S'hatsune'
p3199
sI3200
S'hay'
p3200
sI3201
S'hectic'
p3201
sI3202
S'hence'
p3202
sI3203
S'highly'
p3203
sI3204
S'hitler'
p3204
sI3205
S'hundreds'
p3205
sI3206
S'images'
p3206
sI3207
S'individual'
p3207
sI3208
S'influence'
p3208
sI3209
S'influenced'
p3209
sI3210
S'inspired'
p3210
sI3211
S'instructor'
p3211
sI3212
S'interpreter'
p3212
sI3213
S'interviewer'
p3213
sI3214
S'interviews'
p3214
sI3215
S'j'
p3215
sI3216
S'java'
p3216
sI3217
S'joking'
p3217
sI3218
S'joy'
p3218
sI3219
S'ju'
p3219
sI3220
S'jump'
p3220
sI3221
S'jung'
p3221
sI3222
S'kanji'
p3222
sI3223
S'keyboard'
p3223
sI3224
S'kim'
p3224
sI3225
S'la'
p3225
sI3226
S'lab'
p3226
sI3227
S'land'
p3227
sI3228
S'lane'
p3228
sI3229
S'largest'
p3229
sI3230
S'latter'
p3230
sI3231
S'laying'
p3231
sI3232
S'leader'
p3232
sI3233
S'lectures'
p3233
sI3234
S'lets'
p3234
sI3235
S'lion'
p3235
sI3236
S'locked'
p3236
sI3237
S'log'
p3237
sI3238
S'loudly'
p3238
sI3239
S'mails'
p3239
sI3240
S'manager'
p3240
sI3241
S'maria'
p3241
sI3242
S'massive'
p3242
sI3243
S'maximum'
p3243
sI3244
S'mcdonald'
p3244
sI3245
S'mental'
p3245
sI3246
S'michael'
p3246
sI3247
S'minimum'
p3247
sI3248
S'miracle'
p3248
sI3249
S'miso'
p3249
sI3250
S'mix'
p3250
sI3251
S'mothers'
p3251
sI3252
S'murder'
p3252
sI3253
S'musicians'
p3253
sI3254
S'objects'
p3254
sI3255
S'oldest'
p3255
sI3256
S'organize'
p3256
sI3257
S'outstanding'
p3257
sI3258
S'pack'
p3258
sI3259
S'pandas'
p3259
sI3260
S'passport'
p3260
sI3261
S'patience'
p3261
sI3262
S'pencil'
p3262
sI3263
S'performed'
p3263
sI3264
S'persons'
p3264
sI3265
S'phenomenon'
p3265
sI3266
S'pie'
p3266
sI3267
S'plz'
p3267
sI3268
S'pollution'
p3268
sI3269
S'possibility'
p3269
sI3270
S'pregnant'
p3270
sI3271
S'preposition'
p3271
sI3272
S'prime'
p3272
sI3273
S'profit'
p3273
sI3274
S'programming'
p3274
sI3275
S'promised'
p3275
sI3276
S'proposal'
p3276
sI3277
S'prove'
p3277
sI3278
S'ps'
p3278
sI3279
S'psychology'
p3279
sI3280
S'published'
p3280
sI3281
S'pull'
p3281
sI3282
S'punishment'
p3282
sI3283
S'pushing'
p3283
sI3284
S'q'
p3284
sI3285
S'rains'
p3285
sI3286
S'range'
p3286
sI3287
S'rap'
p3287
sI3288
S're'
p3288
sI3289
S'recipe'
p3289
sI3290
S'recording'
p3290
sI3291
S'reform'
p3291
sI3292
S'refused'
p3292
sI3293
S'regardless'
p3293
sI3294
S'regretted'
p3294
sI3295
S'relative'
p3295
sI3296
S'relaxing'
p3296
sI3297
S'remained'
p3297
sI3298
S'repair'
p3298
sI3299
S'repaired'
p3299
sI3300
S'reports'
p3300
sI3301
S'rescue'
p3301
sI3302
S'reservation'
p3302
sI3303
S'reservoir'
p3303
sI3304
S'reunion'
p3304
sI3305
S'reward'
p3305
sI3306
S'rid'
p3306
sI3307
S'rights'
p3307
sI3308
S'rin'
p3308
sI3309
S'rising'
p3309
sI3310
S'romans'
p3310
sI3311
S'roof'
p3311
sI3312
S'rubik'
p3312
sI3313
S'salt'
p3313
sI3314
S'saving'
p3314
sI3315
S'scare'
p3315
sI3316
S'scheduled'
p3316
sI3317
S'seasons'
p3317
sI3318
S'sex'
p3318
sI3319
S'sexual'
p3319
sI3320
S'shaking'
p3320
sI3321
S'sharing'
p3321
sI3322
S'shed'
p3322
sI3323
S'sheep'
p3323
sI3324
S'sheet'
p3324
sI3325
S'shorter'
p3325
sI3326
S'shown'
p3326
sI3327
S'siberia'
p3327
sI3328
S'signal'
p3328
sI3329
S'sincerely'
p3329
sI3330
S'slang'
p3330
sI3331
S'snake'
p3331
sI3332
S'socks'
p3332
sI3333
S'solutions'
p3333
sI3334
S'sophisticated'
p3334
sI3335
S'southern'
p3335
sI3336
S'split'
p3336
sI3337
S'spot'
p3337
sI3338
S'spreading'
p3338
sI3339
S'ssam'
p3339
sI3340
S'starbucks'
p3340
sI3341
S'status'
p3341
sI3342
S'stones'
p3342
sI3343
S'stove'
p3343
sI3344
S'stream'
p3344
sI3345
S'strengthen'
p3345
sI3346
S'struggled'
p3346
sI3347
S'succeeded'
p3347
sI3348
S'suggestions'
p3348
sI3349
S'suicide'
p3349
sI3350
S'sum'
p3350
sI3351
S'sung'
p3351
sI3352
S'sunrise'
p3352
sI3353
S'sunset'
p3353
sI3354
S'supply'
p3354
sI3355
S'supported'
p3355
sI3356
S'survive'
p3356
sI3357
S'tai'
p3357
sI3358
S'taiko'
p3358
sI3359
S'talkative'
p3359
sI3360
S'temples'
p3360
sI3361
S'temporary'
p3361
sI3362
S'thesis'
p3362
sI3363
S'thier'
p3363
sI3364
S'thinks'
p3364
sI3365
S'threw'
p3365
sI3366
S'titled'
p3366
sI3367
S'tommorow'
p3367
sI3368
S'tower'
p3368
sI3369
S'towns'
p3369
sI3370
S'treats'
p3370
sI3371
S'truly'
p3371
sI3372
S'turtle'
p3372
sI3373
S'tutor'
p3373
sI3374
S'twilight'
p3374
sI3375
S'typhoons'
p3375
sI3376
S'uh'
p3376
sI3377
S'unusual'
p3377
sI3378
S'upper'
p3378
sI3379
S'vacations'
p3379
sI3380
S'values'
p3380
sI3381
S'wa'
p3381
sI3382
S'waitress'
p3382
sI3383
S'wallet'
p3383
sI3384
S'warabi'
p3384
sI3385
S'wasted'
p3385
sI3386
S'weapon'
p3386
sI3387
S'weekdays'
p3387
sI3388
S'widows'
p3388
sI3389
S'workplace'
p3389
sI3390
S'wrap'
p3390
sI3391
S'www'
p3391
sI3392
S'y'
p3392
sI3393
S'yakata'
p3393
sI3394
S'|'
p3394
s.