(dp0
S'total_time'
p1
cdatetime
datetime
p2
(S'\x00\x01\x01\x01\x00\x1c\x14\x0b\x03\x98'
p3
tp4
Rp5
sS'loss_list'
p6
(lp7
(lp8
I0
aI1
aI2
aI3
aI4
aI5
aI6
aI7
aI8
aI9
aI10
aI11
aI12
aI13
aI14
aI15
aI16
aI17
aI18
aI19
aI20
aI21
aI22
aI23
aI24
aI25
aI26
aI27
aI28
aI29
aI30
aI31
aI32
aI33
aI34
aI35
aI36
aI37
aI38
aI39
aI40
aI41
aI42
aI43
aI44
aI45
aI46
aI47
aI48
aI49
aa(lp9
F11319.544158935547
aF8014.457508087158
aF4770.579818725586
aF4984.790500640869
aF4481.477237701416
aF4068.59268951416
aF3730.679515838623
aF4255.116382598877
aF4711.063400268555
aF4410.1206130981445
aF3599.73295211792
aF3980.270252227783
aF3498.1844902038574
aF3816.1646842956543
aF3992.527244567871
aF3436.847640991211
aF3508.137062072754
aF3599.615795135498
aF3313.628391265869
aF3766.530376434326
aF4004.784439086914
aF3475.0131072998047
aF3932.2189025878906
aF3355.916645050049
aF3352.547637939453
aF3199.9301929473877
aF3780.0388412475586
aF3029.464641571045
aF3068.4560012817383
aF3087.939136505127
aF3054.7375450134277
aF4063.217357635498
aF3081.78786277771
aF3180.9784049987793
aF2969.5602474212646
aF3063.406265258789
aF3022.749671936035
aF3301.422695159912
aF3338.1964378356934
aF3085.958526611328
aF3615.1156730651855
aF3038.652074813843
aF3625.310577392578
aF2913.3232078552246
aF2970.5617141723633
aF2904.6948623657227
aF3294.9656047821045
aF2957.828145980835
aF3019.462282180786
aF2933.661636352539
aasS'epoch'
p10
I49
s.