(dp0
S'total_time'
p1
cdatetime
datetime
p2
(S'\x00\x01\x01\x01\x00\x0e\x1f\t\xe1\xe7'
p3
tp4
Rp5
sS'loss_list'
p6
(lp7
(lp8
I0
aI1
aI2
aI3
aI4
aI5
aI6
aI7
aI8
aI9
aI10
aI11
aI12
aI13
aI14
aI15
aI16
aI17
aI18
aI19
aI20
aI21
aI22
aI23
aI24
aI25
aI26
aI27
aI28
aI29
aa(lp9
F15995.310859680176
aF9107.62244796753
aF7960.7427978515625
aF7674.015888214111
aF7171.088043212891
aF6183.362705230713
aF5651.467124938965
aF5297.093036651611
aF4983.386661529541
aF4773.517009735107
aF4608.703052520752
aF3980.6638622283936
aF3714.4399375915527
aF3820.120122909546
aF3833.321559906006
aF3424.269708633423
aF3332.963367462158
aF3223.019973754883
aF3540.3795890808105
aF3188.258457183838
aF3372.5838050842285
aF3243.5893898010254
aF3147.641471862793
aF3269.6340475082397
aF3199.3782119750977
aF2979.8120498657227
aF3026.9591665267944
aF3086.719394683838
aF2976.7671117782593
aF3085.859317779541
aasS'epoch'
p10
I29
s.