(dp0
S'total_time'
p1
cdatetime
datetime
p2
(S'\x00\x01\x01\x02\x11\x139\t\x96\xcf'
p3
tp4
Rp5
sS'loss_list'
p6
(lp7
(lp8
I0
aI1
aI2
aI3
aI4
aI5
aI6
aI7
aI8
aI9
aI10
aI11
aI12
aI13
aI14
aI15
aI16
aI17
aI18
aI19
aI20
aI21
aI22
aI23
aI24
aI25
aI26
aI27
aI28
aI29
aI30
aI31
aI32
aI33
aI34
aI35
aI36
aI37
aI38
aI39
aI40
aI41
aI42
aI43
aI44
aI45
aI46
aI47
aI48
aI49
aI50
aI51
aI52
aI53
aI54
aI55
aI56
aI57
aI58
aI59
aI60
aI61
aI62
aI63
aI64
aI65
aI66
aI67
aI68
aI69
aI70
aI71
aI72
aI73
aI74
aI75
aI76
aI77
aI78
aI79
aI80
aI81
aI82
aI83
aI84
aI85
aI86
aI87
aI88
aI89
aI90
aI91
aI92
aI93
aI94
aI95
aI96
aI97
aI98
aI99
aI100
aI101
aI102
aI103
aI104
aI105
aI106
aI107
aI108
aI109
aI110
aI111
aI112
aI113
aI114
aI115
aI116
aI117
aI118
aI119
aI120
aI121
aI122
aI123
aI124
aI125
aI126
aI127
aI128
aI129
aI130
aI131
aI132
aI133
aI134
aI135
aI136
aI137
aI138
aI139
aI140
aI141
aI142
aI143
aI144
aI145
aI146
aI147
aI148
aI149
aI150
aI151
aI152
aI153
aI154
aI155
aI156
aI157
aI158
aI159
aI160
aI161
aI162
aI163
aI164
aI165
aI166
aI167
aI168
aI169
aI170
aI171
aI172
aI173
aI174
aI175
aI176
aI177
aI178
aI179
aI180
aI181
aI182
aI183
aI184
aI185
aI186
aI187
aI188
aI189
aI190
aI191
aI192
aI193
aI194
aI195
aI196
aI197
aI198
aI199
aI200
aI201
aI202
aI203
aI204
aI205
aI206
aI207
aI208
aI209
aI210
aI211
aI212
aI213
aI214
aI215
aI216
aI217
aI218
aI219
aI220
aI221
aI222
aI223
aI224
aI225
aI226
aI227
aI228
aI229
aI230
aI231
aI232
aI233
aI234
aI235
aI236
aI237
aI238
aI239
aI240
aI241
aI242
aI243
aI244
aI245
aI246
aI247
aI248
aI249
aI250
aI251
aI252
aI253
aI254
aI255
aI256
aI257
aI258
aI259
aI260
aI261
aI262
aI263
aI264
aI265
aI266
aI267
aI268
aI269
aI270
aI271
aI272
aI273
aI274
aI275
aI276
aI277
aI278
aI279
aI280
aI281
aI282
aI283
aI284
aI285
aI286
aI287
aI288
aI289
aI290
aI291
aI292
aI293
aI294
aI295
aI296
aI297
aI298
aI299
aI300
aI301
aI302
aI303
aI304
aI305
aI306
aI307
aI308
aI309
aI310
aI311
aI312
aI313
aI314
aI315
aI316
aI317
aI318
aI319
aI320
aI321
aI322
aI323
aI324
aI325
aI326
aI327
aI328
aI329
aI330
aI331
aI332
aI333
aI334
aI335
aI336
aI337
aI338
aI339
aI340
aI341
aI342
aI343
aI344
aI345
aI346
aI347
aI348
aI349
aI350
aI351
aI352
aI353
aI354
aI355
aI356
aI357
aI358
aI359
aI360
aI361
aI362
aI363
aI364
aI365
aI366
aI367
aI368
aI369
aI370
aI371
aI372
aI373
aI374
aI375
aI376
aI377
aI378
aI379
aI380
aI381
aI382
aI383
aI384
aI385
aI386
aI387
aI388
aI389
aI390
aI391
aI392
aI393
aI394
aI395
aI396
aI397
aI398
aI399
aI400
aI401
aI402
aI403
aI404
aI405
aI406
aI407
aI408
aI409
aI410
aI411
aI412
aI413
aI414
aI415
aI416
aI417
aI418
aI419
aI420
aI421
aI422
aI423
aI424
aI425
aI426
aI427
aI428
aI429
aI430
aI431
aI432
aI433
aI434
aI435
aI436
aI437
aI438
aI439
aI440
aI441
aI442
aI443
aI444
aI445
aI446
aI447
aI448
aI449
aI450
aI451
aI452
aI453
aI454
aI455
aI456
aI457
aI458
aI459
aI460
aI461
aI462
aI463
aI464
aI465
aI466
aI467
aI468
aI469
aI470
aI471
aI472
aI473
aI474
aI475
aI476
aI477
aI478
aI479
aI480
aI481
aI482
aI483
aI484
aI485
aI486
aI487
aI488
aI489
aI490
aI491
aI492
aI493
aI494
aI495
aI496
aI497
aI498
aI499
aI500
aI501
aI502
aI503
aI504
aI505
aI506
aI507
aI508
aI509
aI510
aI511
aI512
aI513
aI514
aI515
aI516
aI517
aI518
aI519
aI520
aI521
aI522
aI523
aI524
aI525
aI526
aI527
aI528
aI529
aI530
aI531
aI532
aI533
aI534
aI535
aI536
aI537
aI538
aI539
aI540
aI541
aI542
aI543
aI544
aI545
aI546
aI547
aI548
aI549
aI550
aI551
aI552
aI553
aI554
aI555
aI556
aI557
aI558
aI559
aI560
aI561
aI562
aI563
aI564
aI565
aI566
aI567
aI568
aI569
aI570
aI571
aI572
aI573
aI574
aI575
aI576
aI577
aI578
aI579
aI580
aI581
aI582
aI583
aI584
aI585
aI586
aI587
aI588
aI589
aI590
aI591
aI592
aI593
aI594
aI595
aI596
aI597
aI598
aI599
aI600
aI601
aI602
aI603
aI604
aI605
aI606
aI607
aI608
aI609
aI610
aI611
aI612
aI613
aI614
aI615
aI616
aI617
aI618
aI619
aI620
aI621
aI622
aI623
aI624
aI625
aI626
aI627
aI628
aI629
aI630
aI631
aI632
aI633
aI634
aI635
aI636
aI637
aI638
aI639
aI640
aI641
aI642
aI643
aI644
aI645
aI646
aI647
aI648
aI649
aI650
aI651
aI652
aI653
aI654
aI655
aI656
aI657
aI658
aI659
aI660
aI661
aI662
aI663
aI664
aI665
aI666
aI667
aI668
aI669
aI670
aI671
aI672
aI673
aI674
aI675
aI676
aI677
aI678
aI679
aI680
aI681
aI682
aI683
aI684
aI685
aI686
aI687
aI688
aI689
aI690
aI691
aI692
aI693
aI694
aI695
aI696
aI697
aI698
aI699
aI700
aI701
aI702
aI703
aI704
aI705
aI706
aI707
aI708
aI709
aI710
aI711
aI712
aI713
aI714
aI715
aI716
aI717
aI718
aI719
aI720
aI721
aI722
aI723
aI724
aI725
aI726
aI727
aI728
aI729
aI730
aI731
aI732
aI733
aI734
aI735
aI736
aI737
aI738
aI739
aI740
aI741
aI742
aI743
aI744
aI745
aI746
aI747
aI748
aI749
aI750
aI751
aI752
aI753
aI754
aI755
aI756
aI757
aI758
aI759
aI760
aI761
aI762
aI763
aI764
aI765
aI766
aI767
aI768
aI769
aI770
aI771
aI772
aI773
aI774
aI775
aI776
aI777
aI778
aI779
aI780
aI781
aI782
aI783
aI784
aI785
aI786
aI787
aI788
aI789
aI790
aI791
aI792
aI793
aI794
aI795
aI796
aI797
aI798
aI799
aI800
aI801
aI802
aI803
aI804
aI805
aI806
aI807
aI808
aI809
aI810
aI811
aI812
aI813
aI814
aI815
aI816
aI817
aI818
aI819
aI820
aI821
aI822
aI823
aI824
aI825
aI826
aI827
aI828
aI829
aI830
aI831
aI832
aI833
aI834
aI835
aI836
aI837
aI838
aI839
aI840
aI841
aI842
aI843
aI844
aI845
aI846
aI847
aI848
aI849
aI850
aI851
aI852
aI853
aI854
aI855
aI856
aI857
aI858
aI859
aI860
aI861
aI862
aI863
aI864
aI865
aI866
aI867
aI868
aI869
aI870
aI871
aI872
aI873
aI874
aI875
aI876
aI877
aI878
aI879
aI880
aI881
aI882
aI883
aI884
aI885
aI886
aI887
aI888
aI889
aI890
aI891
aI892
aI893
aI894
aI895
aI896
aI897
aI898
aI899
aI900
aI901
aI902
aI903
aI904
aI905
aI906
aI907
aI908
aI909
aI910
aI911
aI912
aI913
aI914
aI915
aI916
aI917
aI918
aI919
aI920
aI921
aI922
aI923
aI924
aI925
aI926
aI927
aI928
aI929
aI930
aI931
aI932
aI933
aI934
aI935
aI936
aI937
aI938
aI939
aI940
aI941
aI942
aI943
aI944
aI945
aI946
aI947
aI948
aI949
aI950
aI951
aI952
aI953
aI954
aI955
aI956
aI957
aI958
aI959
aI960
aI961
aI962
aI963
aI964
aI965
aI966
aI967
aI968
aI969
aI970
aI971
aI972
aI973
aI974
aI975
aI976
aI977
aI978
aI979
aI980
aI981
aI982
aI983
aI984
aI985
aI986
aI987
aI988
aI989
aI990
aI991
aI992
aI993
aI994
aI995
aI996
aI997
aI998
aI999
aI1000
aI1001
aI1002
aI1003
aI1004
aI1005
aI1006
aI1007
aI1008
aI1009
aI1010
aI1011
aI1012
aI1013
aI1014
aI1015
aI1016
aI1017
aI1018
aI1019
aI1020
aI1021
aI1022
aI1023
aI1024
aI1025
aI1026
aI1027
aI1028
aI1029
aI1030
aI1031
aI1032
aI1033
aI1034
aI1035
aI1036
aI1037
aI1038
aI1039
aI1040
aI1041
aI1042
aI1043
aI1044
aI1045
aI1046
aI1047
aI1048
aI1049
aI1050
aI1051
aI1052
aI1053
aI1054
aI1055
aI1056
aI1057
aI1058
aI1059
aI1060
aI1061
aI1062
aI1063
aI1064
aI1065
aI1066
aI1067
aI1068
aI1069
aI1070
aI1071
aI1072
aI1073
aI1074
aI1075
aI1076
aI1077
aI1078
aI1079
aI1080
aI1081
aI1082
aI1083
aI1084
aI1085
aI1086
aI1087
aI1088
aI1089
aI1090
aI1091
aI1092
aI1093
aI1094
aI1095
aI1096
aI1097
aI1098
aI1099
aI1100
aI1101
aI1102
aI1103
aI1104
aI1105
aI1106
aI1107
aI1108
aI1109
aI1110
aI1111
aI1112
aI1113
aI1114
aI1115
aI1116
aI1117
aI1118
aI1119
aI1120
aI1121
aI1122
aI1123
aI1124
aI1125
aI1126
aI1127
aI1128
aI1129
aI1130
aI1131
aI1132
aI1133
aI1134
aI1135
aI1136
aI1137
aI1138
aI1139
aI1140
aI1141
aI1142
aI1143
aI1144
aI1145
aI1146
aI1147
aI1148
aI1149
aI1150
aI1151
aI1152
aI1153
aI1154
aI1155
aI1156
aI1157
aI1158
aI1159
aI1160
aI1161
aI1162
aI1163
aI1164
aI1165
aI1166
aI1167
aI1168
aI1169
aI1170
aI1171
aI1172
aI1173
aI1174
aI1175
aI1176
aI1177
aI1178
aI1179
aI1180
aI1181
aI1182
aI1183
aI1184
aI1185
aI1186
aI1187
aI1188
aI1189
aI1190
aI1191
aI1192
aI1193
aI1194
aI1195
aI1196
aI1197
aI1198
aI1199
aI1200
aI1201
aI1202
aI1203
aI1204
aI1205
aI1206
aI1207
aI1208
aI1209
aI1210
aI1211
aI1212
aI1213
aI1214
aI1215
aI1216
aI1217
aI1218
aI1219
aI1220
aI1221
aI1222
aI1223
aI1224
aI1225
aI1226
aI1227
aI1228
aI1229
aI1230
aI1231
aI1232
aI1233
aI1234
aI1235
aI1236
aI1237
aI1238
aI1239
aI1240
aI1241
aI1242
aI1243
aI1244
aI1245
aI1246
aI1247
aI1248
aI1249
aI1250
aI1251
aI1252
aI1253
aI1254
aI1255
aI1256
aI1257
aI1258
aI1259
aI1260
aI1261
aI1262
aI1263
aI1264
aI1265
aI1266
aI1267
aI1268
aI1269
aI1270
aI1271
aI1272
aI1273
aI1274
aI1275
aI1276
aI1277
aI1278
aI1279
aI1280
aI1281
aI1282
aI1283
aI1284
aI1285
aI1286
aI1287
aI1288
aI1289
aI1290
aI1291
aI1292
aI1293
aI1294
aI1295
aI1296
aI1297
aI1298
aI1299
aI1300
aI1301
aI1302
aI1303
aI1304
aI1305
aI1306
aI1307
aI1308
aI1309
aI1310
aI1311
aI1312
aI1313
aI1314
aI1315
aI1316
aI1317
aI1318
aI1319
aI1320
aI1321
aI1322
aI1323
aI1324
aI1325
aI1326
aI1327
aI1328
aI1329
aI1330
aI1331
aI1332
aI1333
aI1334
aI1335
aI1336
aI1337
aI1338
aI1339
aI1340
aI1341
aI1342
aI1343
aI1344
aI1345
aI1346
aI1347
aI1348
aI1349
aI1350
aI1351
aI1352
aI1353
aI1354
aI1355
aI1356
aI1357
aI1358
aI1359
aI1360
aI1361
aI1362
aI1363
aI1364
aI1365
aI1366
aI1367
aI1368
aI1369
aI1370
aI1371
aI1372
aI1373
aI1374
aI1375
aI1376
aI1377
aI1378
aI1379
aI1380
aI1381
aI1382
aI1383
aI1384
aI1385
aI1386
aI1387
aI1388
aI1389
aI1390
aI1391
aI1392
aI1393
aI1394
aI1395
aI1396
aI1397
aI1398
aI1399
aI1400
aI1401
aI1402
aI1403
aI1404
aI1405
aI1406
aI1407
aI1408
aI1409
aI1410
aI1411
aI1412
aI1413
aI1414
aI1415
aI1416
aI1417
aI1418
aI1419
aI1420
aI1421
aI1422
aI1423
aI1424
aI1425
aI1426
aI1427
aI1428
aI1429
aI1430
aI1431
aI1432
aI1433
aI1434
aI1435
aI1436
aI1437
aI1438
aI1439
aI1440
aI1441
aI1442
aI1443
aI1444
aI1445
aI1446
aI1447
aI1448
aI1449
aI1450
aI1451
aI1452
aI1453
aI1454
aI1455
aI1456
aI1457
aI1458
aI1459
aI1460
aI1461
aI1462
aI1463
aI1464
aI1465
aI1466
aI1467
aI1468
aI1469
aI1470
aI1471
aI1472
aI1473
aI1474
aI1475
aI1476
aI1477
aI1478
aI1479
aI1480
aI1481
aI1482
aI1483
aI1484
aI1485
aI1486
aI1487
aI1488
aI1489
aI1490
aI1491
aI1492
aI1493
aI1494
aI1495
aI1496
aI1497
aI1498
aI1499
aI1500
aI1501
aI1502
aI1503
aI1504
aI1505
aI1506
aI1507
aI1508
aI1509
aI1510
aI1511
aI1512
aI1513
aI1514
aI1515
aI1516
aI1517
aI1518
aI1519
aI1520
aI1521
aI1522
aI1523
aI1524
aI1525
aI1526
aI1527
aI1528
aI1529
aI1530
aI1531
aI1532
aI1533
aI1534
aI1535
aI1536
aI1537
aI1538
aI1539
aI1540
aI1541
aI1542
aI1543
aI1544
aI1545
aI1546
aI1547
aI1548
aI1549
aI1550
aI1551
aI1552
aI1553
aI1554
aI1555
aI1556
aI1557
aI1558
aI1559
aI1560
aI1561
aI1562
aI1563
aI1564
aI1565
aI1566
aI1567
aI1568
aI1569
aI1570
aI1571
aI1572
aI1573
aI1574
aI1575
aI1576
aI1577
aI1578
aI1579
aI1580
aI1581
aI1582
aI1583
aI1584
aI1585
aI1586
aI1587
aI1588
aI1589
aI1590
aI1591
aI1592
aI1593
aI1594
aI1595
aI1596
aI1597
aI1598
aI1599
aI1600
aI1601
aI1602
aI1603
aI1604
aI1605
aI1606
aI1607
aI1608
aI1609
aI1610
aI1611
aI1612
aI1613
aI1614
aI1615
aI1616
aI1617
aI1618
aI1619
aI1620
aI1621
aI1622
aI1623
aI1624
aI1625
aI1626
aI1627
aI1628
aI1629
aI1630
aI1631
aI1632
aI1633
aI1634
aI1635
aI1636
aI1637
aI1638
aI1639
aI1640
aI1641
aI1642
aI1643
aI1644
aI1645
aI1646
aI1647
aI1648
aI1649
aI1650
aI1651
aI1652
aI1653
aI1654
aI1655
aI1656
aI1657
aI1658
aI1659
aI1660
aI1661
aI1662
aI1663
aI1664
aI1665
aI1666
aI1667
aI1668
aI1669
aI1670
aI1671
aI1672
aI1673
aI1674
aI1675
aI1676
aI1677
aI1678
aI1679
aI1680
aI1681
aI1682
aI1683
aI1684
aI1685
aI1686
aI1687
aI1688
aI1689
aI1690
aI1691
aI1692
aI1693
aI1694
aI1695
aI1696
aI1697
aI1698
aI1699
aI1700
aI1701
aI1702
aI1703
aI1704
aI1705
aI1706
aI1707
aI1708
aI1709
aI1710
aI1711
aI1712
aI1713
aI1714
aI1715
aI1716
aI1717
aI1718
aI1719
aI1720
aI1721
aI1722
aI1723
aI1724
aI1725
aI1726
aI1727
aI1728
aI1729
aI1730
aI1731
aI1732
aI1733
aI1734
aI1735
aI1736
aI1737
aI1738
aI1739
aI1740
aI1741
aI1742
aI1743
aI1744
aI1745
aI1746
aI1747
aI1748
aI1749
aI1750
aI1751
aI1752
aI1753
aI1754
aI1755
aI1756
aI1757
aI1758
aI1759
aI1760
aI1761
aI1762
aI1763
aI1764
aI1765
aI1766
aI1767
aI1768
aI1769
aI1770
aI1771
aI1772
aI1773
aI1774
aI1775
aI1776
aI1777
aI1778
aI1779
aI1780
aI1781
aI1782
aI1783
aI1784
aI1785
aI1786
aI1787
aI1788
aI1789
aI1790
aI1791
aI1792
aI1793
aI1794
aI1795
aI1796
aI1797
aI1798
aI1799
aI1800
aI1801
aI1802
aI1803
aI1804
aI1805
aI1806
aI1807
aI1808
aI1809
aI1810
aI1811
aI1812
aI1813
aI1814
aI1815
aI1816
aI1817
aI1818
aI1819
aI1820
aI1821
aI1822
aI1823
aI1824
aI1825
aI1826
aI1827
aI1828
aI1829
aI1830
aI1831
aI1832
aI1833
aI1834
aI1835
aI1836
aI1837
aI1838
aI1839
aI1840
aI1841
aI1842
aI1843
aI1844
aI1845
aI1846
aI1847
aI1848
aI1849
aI1850
aI1851
aI1852
aI1853
aI1854
aI1855
aI1856
aI1857
aI1858
aI1859
aI1860
aI1861
aI1862
aI1863
aI1864
aI1865
aI1866
aI1867
aI1868
aI1869
aI1870
aI1871
aI1872
aI1873
aI1874
aI1875
aI1876
aI1877
aI1878
aI1879
aI1880
aI1881
aI1882
aI1883
aI1884
aI1885
aI1886
aI1887
aI1888
aI1889
aI1890
aI1891
aI1892
aI1893
aI1894
aI1895
aI1896
aI1897
aI1898
aI1899
aI1900
aI1901
aI1902
aI1903
aI1904
aI1905
aI1906
aI1907
aI1908
aI1909
aI1910
aI1911
aI1912
aI1913
aI1914
aI1915
aI1916
aI1917
aI1918
aI1919
aI1920
aI1921
aI1922
aI1923
aI1924
aI1925
aI1926
aI1927
aI1928
aI1929
aI1930
aI1931
aI1932
aI1933
aI1934
aI1935
aI1936
aI1937
aI1938
aI1939
aI1940
aI1941
aI1942
aI1943
aI1944
aI1945
aI1946
aI1947
aI1948
aI1949
aI1950
aI1951
aI1952
aI1953
aI1954
aI1955
aI1956
aI1957
aI1958
aI1959
aI1960
aI1961
aI1962
aI1963
aI1964
aI1965
aI1966
aI1967
aI1968
aI1969
aI1970
aI1971
aI1972
aI1973
aI1974
aI1975
aI1976
aI1977
aI1978
aI1979
aI1980
aI1981
aI1982
aI1983
aI1984
aI1985
aI1986
aI1987
aI1988
aI1989
aI1990
aI1991
aI1992
aI1993
aI1994
aI1995
aI1996
aI1997
aI1998
aI1999
aI2000
aI2001
aI2002
aI2003
aI2004
aI2005
aI2006
aI2007
aI2008
aI2009
aI2010
aI2011
aI2012
aI2013
aI2014
aI2015
aI2016
aI2017
aI2018
aI2019
aI2020
aI2021
aI2022
aI2023
aI2024
aI2025
aI2026
aI2027
aI2028
aI2029
aI2030
aI2031
aI2032
aI2033
aI2034
aI2035
aI2036
aI2037
aI2038
aI2039
aI2040
aI2041
aI2042
aI2043
aI2044
aI2045
aI2046
aI2047
aI2048
aI2049
aI2050
aI2051
aI2052
aI2053
aI2054
aI2055
aI2056
aI2057
aI2058
aI2059
aI2060
aI2061
aI2062
aI2063
aI2064
aI2065
aI2066
aI2067
aI2068
aI2069
aI2070
aI2071
aI2072
aI2073
aI2074
aI2075
aI2076
aI2077
aI2078
aI2079
aI2080
aI2081
aI2082
aI2083
aI2084
aI2085
aI2086
aI2087
aI2088
aI2089
aI2090
aI2091
aI2092
aI2093
aI2094
aI2095
aI2096
aI2097
aI2098
aI2099
aI2100
aI2101
aI2102
aI2103
aI2104
aI2105
aI2106
aI2107
aI2108
aI2109
aI2110
aI2111
aI2112
aI2113
aI2114
aI2115
aI2116
aI2117
aI2118
aI2119
aI2120
aI2121
aI2122
aI2123
aI2124
aI2125
aI2126
aI2127
aI2128
aI2129
aI2130
aI2131
aI2132
aI2133
aI2134
aI2135
aI2136
aI2137
aI2138
aI2139
aI2140
aI2141
aI2142
aI2143
aI2144
aI2145
aI2146
aI2147
aI2148
aI2149
aI2150
aI2151
aI2152
aI2153
aI2154
aI2155
aI2156
aI2157
aI2158
aI2159
aI2160
aI2161
aI2162
aI2163
aI2164
aI2165
aI2166
aI2167
aI2168
aI2169
aI2170
aI2171
aI2172
aI2173
aI2174
aI2175
aI2176
aI2177
aI2178
aI2179
aI2180
aI2181
aI2182
aI2183
aI2184
aI2185
aI2186
aI2187
aI2188
aI2189
aI2190
aI2191
aI2192
aI2193
aI2194
aI2195
aI2196
aI2197
aI2198
aI2199
aI2200
aI2201
aI2202
aI2203
aI2204
aI2205
aI2206
aI2207
aI2208
aI2209
aI2210
aI2211
aI2212
aI2213
aI2214
aI2215
aI2216
aI2217
aI2218
aI2219
aI2220
aI2221
aI2222
aI2223
aI2224
aI2225
aI2226
aI2227
aI2228
aI2229
aI2230
aI2231
aI2232
aI2233
aI2234
aI2235
aI2236
aI2237
aI2238
aI2239
aI2240
aI2241
aI2242
aI2243
aI2244
aI2245
aI2246
aI2247
aI2248
aI2249
aI2250
aI2251
aI2252
aI2253
aI2254
aI2255
aI2256
aI2257
aI2258
aI2259
aI2260
aI2261
aI2262
aI2263
aI2264
aI2265
aI2266
aI2267
aI2268
aI2269
aI2270
aI2271
aI2272
aI2273
aI2274
aI2275
aI2276
aI2277
aI2278
aI2279
aI2280
aI2281
aI2282
aI2283
aI2284
aI2285
aa(lp9
F89716.23181152344
aF63573.20690917969
aF58543.732849121094
aF54648.55419921875
aF53835.572814941406
aF53558.6315612793
aF53328.384765625
aF53163.32775878906
aF52999.32388305664
aF52878.31872558594
aF52751.474548339844
aF52665.514099121094
aF52538.97186279297
aF52443.73828125
aF52359.154724121094
aF52182.31359863281
aF51953.089599609375
aF51844.34313964844
aF51782.36865234375
aF51942.928802490234
aF52031.696044921875
aF51816.3505859375
aF51761.191650390625
aF51694.02813720703
aF51637.33239746094
aF51578.089294433594
aF51362.074157714844
aF51185.184631347656
aF51104.45300292969
aF51274.197265625
aF51113.93569946289
aF51352.73370361328
aF50969.16564941406
aF51384.92724609375
aF51090.85729980469
aF50586.731506347656
aF50661.50469970703
aF50873.99951171875
aF50579.612365722656
aF50683.54406738281
aF50341.704162597656
aF50311.1711730957
aF50217.92056274414
aF50062.47814941406
aF49855.99267578125
aF49854.74987792969
aF49628.57763671875
aF49550.937744140625
aF49488.93859863281
aF49401.83874511719
aF49293.76739501953
aF49222.695861816406
aF49171.547119140625
aF49096.05838012695
aF49014.991790771484
aF48954.6435546875
aF48908.747650146484
aF48831.75881958008
aF48836.508728027344
aF48970.95199584961
aF48938.59841918945
aF48638.69677734375
aF48587.61135864258
aF48671.21276855469
aF48715.894104003906
aF48538.77755737305
aF48494.9899597168
aF48502.42364501953
aF48491.333099365234
aF48318.9660949707
aF48469.46270751953
aF48115.13250732422
aF48175.204345703125
aF47996.17248535156
aF47894.37887573242
aF48068.39114379883
aF48019.267028808594
aF48015.11669921875
aF47989.86447143555
aF47783.614990234375
aF47776.12252807617
aF47653.13641357422
aF47716.84436035156
aF47495.885986328125
aF47594.431701660156
aF47593.66241455078
aF47372.94122314453
aF47308.1242980957
aF47491.930267333984
aF47525.643981933594
aF47463.83819580078
aF47320.31021118164
aF47266.407470703125
aF47146.39340209961
aF47337.563049316406
aF47201.93130493164
aF47197.60437011719
aF46971.510833740234
aF47011.39306640625
aF47143.800231933594
aF47095.794189453125
aF46877.609802246094
aF46824.03402709961
aF46827.318939208984
aF46694.80953979492
aF46664.55712890625
aF46648.1462097168
aF46580.6930847168
aF46569.70919799805
aF46633.3596496582
aF46565.67947387695
aF46818.10852050781
aF46456.432067871094
aF46413.37857055664
aF46384.63735961914
aF46349.332611083984
aF46506.4033203125
aF46330.06008911133
aF46358.17263793945
aF46468.70681762695
aF46462.210540771484
aF46341.580963134766
aF46226.2848815918
aF46259.259033203125
aF46045.45031738281
aF46015.98599243164
aF45959.8815612793
aF46030.69876098633
aF45889.36471557617
aF45870.97106933594
aF45854.098724365234
aF45933.69821166992
aF46075.463287353516
aF45849.252380371094
aF45741.366790771484
aF45868.45608520508
aF45747.89904785156
aF45634.69860839844
aF45580.127532958984
aF45527.41818237305
aF45542.524841308594
aF45458.1711730957
aF45399.079345703125
aF45348.922790527344
aF45417.20669555664
aF45365.94448852539
aF45235.326568603516
aF45386.931243896484
aF45268.99606323242
aF45154.07946777344
aF45076.10903930664
aF45073.78454589844
aF45049.308013916016
aF44985.82537841797
aF44946.687927246094
aF45151.908752441406
aF44884.2912902832
aF44831.22235107422
aF44772.97314453125
aF44879.464752197266
aF44670.60568237305
aF44602.743103027344
aF44589.55648803711
aF44509.29104614258
aF44533.93280029297
aF44450.54064941406
aF44641.29342651367
aF44439.6416015625
aF44299.51544189453
aF44348.19177246094
aF44309.929107666016
aF44254.01092529297
aF44136.263092041016
aF44056.126220703125
aF44016.01284790039
aF44103.75045776367
aF44020.860900878906
aF44050.49917602539
aF43871.59408569336
aF43784.317474365234
aF43758.55615234375
aF43774.024658203125
aF43698.94299316406
aF43699.99234008789
aF43554.74850463867
aF43510.24349975586
aF43574.83224487305
aF43551.102478027344
aF43444.25646972656
aF43267.28161621094
aF43470.94836425781
aF43282.99041748047
aF43159.38220214844
aF43035.181701660156
aF43098.54086303711
aF42905.194915771484
aF42806.91372680664
aF42812.06832885742
aF42752.37673950195
aF42659.65545654297
aF42548.47250366211
aF42781.820220947266
aF42505.15655517578
aF42428.72741699219
aF42310.18441772461
aF42320.6220703125
aF42176.40115356445
aF42112.672424316406
aF42036.00570678711
aF41997.863342285156
aF42040.16455078125
aF42088.260498046875
aF41834.96823120117
aF41734.2658996582
aF41764.49523925781
aF41588.0862121582
aF41583.51513671875
aF41544.05712890625
aF41504.18539428711
aF41300.989318847656
aF41268.989685058594
aF41139.91879272461
aF41078.15951538086
aF41098.902435302734
aF41077.4319152832
aF40865.0830078125
aF40776.69528198242
aF40677.38082885742
aF40589.1159362793
aF40506.526916503906
aF40435.295837402344
aF40531.14874267578
aF40487.1184387207
aF40255.747009277344
aF40190.32666015625
aF40243.06954956055
aF40023.12176513672
aF39939.48815917969
aF39851.394775390625
aF39962.63345336914
aF39673.58068847656
aF39568.55596923828
aF39542.19064331055
aF39510.81262207031
aF39395.1611328125
aF39407.01119995117
aF39232.90545654297
aF39058.378662109375
aF38965.12469482422
aF39016.896392822266
aF38779.44207763672
aF38730.99691772461
aF38581.49188232422
aF38454.167083740234
aF38418.0481262207
aF38232.90460205078
aF38176.26010131836
aF38317.219818115234
aF37895.33117675781
aF37836.17984008789
aF37679.92922973633
aF37640.243713378906
aF37410.53015136719
aF37474.83883666992
aF37298.64566040039
aF37388.01257324219
aF37120.25631713867
aF36925.676666259766
aF36837.8576965332
aF36650.88165283203
aF36573.586517333984
aF36523.07470703125
aF36268.72103881836
aF36129.49948120117
aF36014.857482910156
aF36038.36199951172
aF35766.01306152344
aF35642.629333496094
aF35676.1494140625
aF35546.49249267578
aF35591.361572265625
aF35275.530334472656
aF35211.61340332031
aF35132.53253173828
aF34937.87170410156
aF34717.86541748047
aF34688.48257446289
aF34544.83917236328
aF34496.46401977539
aF34448.84423828125
aF34242.04705810547
aF34148.499572753906
aF34016.75082397461
aF33888.04071044922
aF33934.261810302734
aF33883.86309814453
aF33692.081604003906
aF33878.443115234375
aF33589.329193115234
aF33332.2614440918
aF33341.08856201172
aF33198.833984375
aF33364.8180847168
aF33347.06591796875
aF33110.02648925781
aF32854.85446166992
aF32935.1162109375
aF32736.093536376953
aF32579.75698852539
aF32464.7412109375
aF32532.250244140625
aF32514.126953125
aF32596.914001464844
aF32244.077270507812
aF32423.095092773438
aF31984.204681396484
aF31942.393432617188
aF31955.51254272461
aF32008.789337158203
aF31674.140838623047
aF31963.012451171875
aF31838.044006347656
aF31623.982330322266
aF31609.20297241211
aF31656.960510253906
aF31588.73828125
aF31348.187927246094
aF31504.454620361328
aF31342.700744628906
aF31138.12564086914
aF30887.570404052734
aF30937.191467285156
aF30836.994659423828
aF31032.380096435547
aF31025.911010742188
aF31001.703094482422
aF30933.957275390625
aF30640.301208496094
aF30691.32843017578
aF30476.7353515625
aF30670.921966552734
aF30622.249603271484
aF30473.051177978516
aF30194.64633178711
aF30085.036895751953
aF30324.34893798828
aF30316.51968383789
aF30284.165588378906
aF30212.590270996094
aF29914.96112060547
aF29886.136016845703
aF30074.72445678711
aF30033.00747680664
aF29896.377075195312
aF29805.809173583984
aF29808.82113647461
aF29410.557373046875
aF29454.70001220703
aF29722.491607666016
aF29630.02557373047
aF29259.217651367188
aF29222.30303955078
aF29512.39028930664
aF29464.4453125
aF29373.85903930664
aF28989.961547851562
aF28898.247802734375
aF28814.245361328125
aF28830.723876953125
aF29081.33139038086
aF29062.15673828125
aF28974.46356201172
aF28918.941680908203
aF28645.663604736328
aF28430.83236694336
aF28378.272735595703
aF28343.415588378906
aF28944.438232421875
aF28781.764373779297
aF28633.439971923828
aF28568.333038330078
aF28544.23828125
aF28332.979125976562
aF28201.23599243164
aF28684.03823852539
aF28303.56167602539
aF28122.813446044922
aF28259.571075439453
aF28189.845458984375
aF28157.466369628906
aF28109.274627685547
aF27747.95687866211
aF27587.47802734375
aF27619.064697265625
aF27932.524200439453
aF27780.367645263672
aF27488.64404296875
aF27733.077117919922
aF27748.32843017578
aF27692.270751953125
aF27652.520751953125
aF27655.726013183594
aF27615.25912475586
aF27540.02670288086
aF27472.67724609375
aF27477.457122802734
aF27046.992309570312
aF27113.450073242188
aF27222.852569580078
aF26905.43960571289
aF27292.327926635742
aF27156.796813964844
aF27137.03189086914
aF26708.217559814453
aF26918.995346069336
aF26986.899459838867
aF26943.287017822266
aF26902.10040283203
aF26788.080078125
aF26463.770111083984
aF26672.535858154297
aF26444.546173095703
aF26609.901306152344
aF26624.313415527344
aF26522.746124267578
aF26141.38214111328
aF26027.79019165039
aF26361.093215942383
aF26375.71112060547
aF26364.767120361328
aF26043.484649658203
aF25882.134826660156
aF26261.44268798828
aF26188.119842529297
aF26178.126220703125
aF25860.991790771484
aF25984.729248046875
aF25756.7449798584
aF25664.133666992188
aF25981.468215942383
aF25767.29522705078
aF25400.380096435547
aF25566.137176513672
aF25363.380920410156
aF25488.041259765625
aF25292.934860229492
aF25521.179260253906
aF25511.122299194336
aF25531.173065185547
aF25522.303985595703
aF25470.958770751953
aF25434.353973388672
aF25243.7900390625
aF25197.919372558594
aF25318.35919189453
aF25308.35237121582
aF24812.30519104004
aF25123.54327392578
aF25221.57162475586
aF25196.012603759766
aF25192.028549194336
aF24632.155517578125
aF24998.72869873047
aF24527.35952758789
aF24636.116989135742
aF24502.873779296875
aF25110.518768310547
aF24804.72328186035
aF24786.102569580078
aF24751.30142211914
aF24496.341674804688
aF24446.590698242188
aF24698.967819213867
aF24583.216094970703
aF24578.742477416992
aF24443.30645751953
aF24305.541870117188
aF23986.092651367188
aF23973.59652709961
aF24316.387481689453
aF24343.84994506836
aF24322.090057373047
aF23975.50486755371
aF24427.884796142578
aF23931.270248413086
aF23746.50570678711
aF24137.323532104492
aF23952.333374023438
aF24062.511184692383
aF23878.46649169922
aF23840.93179321289
aF23606.965042114258
aF23651.042236328125
aF23493.59246826172
aF23368.457000732422
aF23831.758880615234
aF23294.19451904297
aF23254.73503112793
aF23701.269943237305
aF23605.078323364258
aF23265.71795654297
aF23433.37957763672
aF23295.40199279785
aF23433.28401184082
aF23416.3231048584
aF23447.25619506836
aF23335.0078125
aF22841.837829589844
aF23156.587326049805
aF22996.083724975586
aF23144.250381469727
aF23166.035415649414
aF23036.00730895996
aF22728.543502807617
aF22941.094177246094
aF22773.46435546875
aF22734.18260192871
aF22478.759765625
aF22583.138427734375
aF22904.547927856445
aF22854.80534362793
aF22438.221267700195
aF22285.946807861328
aF22355.706283569336
aF22152.243057250977
aF22229.692977905273
aF22200.566650390625
aF22048.957763671875
aF22015.109298706055
aF22557.50340270996
aF22435.20442199707
aF22422.6806640625
aF22334.482696533203
aF22336.579223632812
aF21894.54443359375
aF21851.30303955078
aF21768.708206176758
aF22064.996383666992
aF21772.284271240234
aF21622.243682861328
aF21611.275802612305
aF21551.646514892578
aF21525.665328979492
aF21421.00079345703
aF21511.254852294922
aF21452.310485839844
aF21372.470489501953
aF21432.377365112305
aF21362.351043701172
aF21613.971710205078
aF21661.64451599121
aF21594.69010925293
aF21563.184692382812
aF21544.875595092773
aF21156.498657226562
aF21036.80923461914
aF20931.62466430664
aF21028.080154418945
aF21476.126510620117
aF21076.05174255371
aF20913.873321533203
aF20970.93128967285
aF20887.6326751709
aF20876.44920349121
aF21167.858978271484
aF21154.21156311035
aF21156.462524414062
aF20891.52163696289
aF20695.956588745117
aF20616.231018066406
aF20515.260971069336
aF20800.09797668457
aF20632.111267089844
aF20537.736434936523
aF20484.601486206055
aF20321.087661743164
aF20280.50912475586
aF20306.497634887695
aF20338.913818359375
aF20414.68553161621
aF20357.69610595703
aF20099.615966796875
aF20118.009872436523
aF20243.900329589844
aF20239.6456451416
aF19942.841888427734
aF19959.563720703125
aF19873.103515625
aF19883.045440673828
aF19773.011444091797
aF19694.863525390625
aF19752.256576538086
aF19677.078887939453
aF19807.58531188965
aF19625.448760986328
aF19780.831146240234
aF19526.177139282227
aF19703.864501953125
aF19493.0858001709
aF19764.429962158203
aF19761.184524536133
aF19602.94792175293
aF19515.820068359375
aF19424.524673461914
aF19606.06950378418
aF19667.752853393555
aF19259.5623626709
aF19407.5252532959
aF19388.29232788086
aF19228.98406982422
aF20014.027877807617
aF19498.03465270996
aF19732.983779907227
aF19260.3868560791
aF19005.466415405273
aF19153.850067138672
aF18951.15121459961
aF19117.08480834961
aF19269.160568237305
aF18806.638397216797
aF18889.908615112305
aF19048.54071044922
aF19104.886154174805
aF18685.13687133789
aF18685.88119506836
aF18906.085983276367
aF18766.042510986328
aF19046.0597076416
aF18719.448348999023
aF18494.1368560791
aF18479.777313232422
aF18778.908889770508
aF18629.204544067383
aF18976.715896606445
aF18408.456176757812
aF18433.3233795166
aF18751.90460205078
aF18659.0606842041
aF18277.103591918945
aF18568.470001220703
aF18318.76106262207
aF18559.312271118164
aF18244.195846557617
aF18331.785369873047
aF18270.308715820312
aF18020.289672851562
aF18174.78643798828
aF18230.711944580078
aF17993.483764648438
aF18199.443771362305
aF18247.528884887695
aF17998.704376220703
aF18048.887924194336
aF18035.909149169922
aF17835.050262451172
aF17753.07145690918
aF17890.562225341797
aF17715.209350585938
aF17670.031677246094
aF17773.966552734375
aF17801.65316772461
aF17870.928955078125
aF17876.604415893555
aF18411.208908081055
aF17831.335479736328
aF17580.482955932617
aF17706.840744018555
aF17706.12660217285
aF17757.372329711914
aF17542.420333862305
aF17254.897079467773
aF17478.627670288086
aF17448.760711669922
aF17207.20932006836
aF17344.51612854004
aF17140.31298828125
aF17384.850326538086
aF17446.474014282227
aF17445.795791625977
aF17331.46319580078
aF17223.289611816406
aF17228.0877532959
aF17177.323303222656
aF17347.911392211914
aF16974.247634887695
aF17287.129989624023
aF17115.889205932617
aF17141.532928466797
aF16936.341033935547
aF17137.974380493164
aF16952.098861694336
aF17018.822784423828
aF16770.956787109375
aF16794.97491455078
aF16722.48402404785
aF17029.90982055664
aF16739.578033447266
aF16861.187454223633
aF16574.449508666992
aF16618.844161987305
aF16486.817993164062
aF16486.421188354492
aF16747.597686767578
aF16520.2420501709
aF16854.988159179688
aF16358.972564697266
aF16240.831558227539
aF16233.022018432617
aF16181.649307250977
aF16403.145431518555
aF16334.143020629883
aF16100.369705200195
aF16090.723251342773
aF16077.463745117188
aF16362.5341796875
aF16179.20133972168
aF16169.821685791016
aF16053.564865112305
aF16217.5478515625
aF16007.98274230957
aF15929.4365234375
aF16025.589965820312
aF15973.580261230469
aF16026.677795410156
aF16620.507354736328
aF16024.52262878418
aF16037.789031982422
aF15757.084228515625
aF15672.891708374023
aF15682.37905883789
aF15848.504806518555
aF15792.291732788086
aF15584.180694580078
aF15535.237319946289
aF15756.161682128906
aF15856.611801147461
aF15853.42739868164
aF15411.322555541992
aF15652.05435180664
aF15787.492630004883
aF15602.159301757812
aF15735.689636230469
aF15588.028686523438
aF15501.70718383789
aF15212.651260375977
aF15364.082244873047
aF15354.183853149414
aF15367.444412231445
aF15323.784606933594
aF15305.529327392578
aF15120.53742980957
aF15316.866256713867
aF15156.553405761719
aF15303.049942016602
aF15143.250793457031
aF15283.268142700195
aF15173.223327636719
aF15278.305725097656
aF15109.1552734375
aF15238.228652954102
aF15057.437133789062
aF15066.170364379883
aF15103.495498657227
aF15033.424667358398
aF15041.304122924805
aF14858.958206176758
aF14864.53305053711
aF14832.220321655273
aF14800.828735351562
aF14779.811508178711
aF14805.012329101562
aF14748.38491821289
aF14907.000396728516
aF14641.22087097168
aF14816.02133178711
aF14549.409622192383
aF14539.205749511719
aF14721.645370483398
aF14730.557571411133
aF14443.50569152832
aF14478.059661865234
aF14400.396087646484
aF14476.375106811523
aF14527.609390258789
aF14519.854415893555
aF14368.05973815918
aF14295.541641235352
aF14796.32551574707
aF14609.455963134766
aF14296.416763305664
aF14419.660766601562
aF14488.869720458984
aF14239.90380859375
aF14314.644424438477
aF14445.831085205078
aF14298.548065185547
aF14750.291732788086
aF14454.424301147461
aF14566.054977416992
aF14259.914443969727
aF14261.153518676758
aF14091.043899536133
aF14026.776336669922
aF14006.045150756836
aF13902.658782958984
aF14031.629592895508
aF14247.904220581055
aF14138.288208007812
aF14049.524703979492
aF13942.247970581055
aF13904.602340698242
aF13838.893280029297
aF14013.631591796875
aF14004.540557861328
aF13912.97395324707
aF13659.224227905273
aF13905.28825378418
aF13799.689910888672
aF13644.539138793945
aF13693.846252441406
aF13947.729309082031
aF13639.216598510742
aF13611.605834960938
aF13631.368118286133
aF13529.271179199219
aF13757.570404052734
aF13461.241195678711
aF13364.219436645508
aF13566.356079101562
aF13469.989349365234
aF13298.791427612305
aF13512.665725708008
aF13336.791305541992
aF13463.511428833008
aF13427.858978271484
aF13942.895401000977
aF13497.475540161133
aF13432.268692016602
aF13361.842575073242
aF13345.014709472656
aF13286.556549072266
aF13221.726181030273
aF13410.915222167969
aF13230.292984008789
aF13399.808990478516
aF13995.835586547852
aF13321.212417602539
aF13247.83236694336
aF13121.760757446289
aF13010.621368408203
aF12949.633056640625
aF13010.622329711914
aF13301.078643798828
aF13058.448379516602
aF12865.064529418945
aF13079.857688903809
aF12972.563621520996
aF12913.43472290039
aF12896.254119873047
aF12979.341697692871
aF13018.596435546875
aF12734.297485351562
aF12789.341590881348
aF13191.8369140625
aF12739.756698608398
aF12852.163375854492
aF12641.763381958008
aF12745.075378417969
aF12733.261260986328
aF12453.9755859375
aF12546.406288146973
aF12803.147262573242
aF12936.552673339844
aF12779.785499572754
aF12532.768447875977
aF12487.404197692871
aF12922.154296875
aF12639.279037475586
aF12551.407135009766
aF12308.596908569336
aF12581.180671691895
aF12408.587692260742
aF12448.485557556152
aF12592.865509033203
aF12430.214744567871
aF12413.16226196289
aF12252.293830871582
aF12362.679878234863
aF12276.91423034668
aF12433.466201782227
aF12183.736595153809
aF12368.887481689453
aF12214.730514526367
aF12092.068069458008
aF12158.908874511719
aF12126.258544921875
aF12291.265762329102
aF12137.43148803711
aF12131.755432128906
aF12033.43667602539
aF12056.174369812012
aF12121.88842010498
aF11943.953498840332
aF11955.285591125488
aF12080.646759033203
aF12219.913055419922
aF11790.541694641113
aF11953.593368530273
aF11959.89136505127
aF11992.524436950684
aF11811.542617797852
aF12018.298561096191
aF11734.019989013672
aF11792.085800170898
aF11653.216331481934
aF11618.168113708496
aF11523.442039489746
aF11589.977867126465
aF11732.65640258789
aF11835.471054077148
aF11602.272521972656
aF11696.720642089844
aF11467.945594787598
aF11485.024536132812
aF11465.719200134277
aF11512.865257263184
aF11803.626136779785
aF11893.013534545898
aF11284.51708984375
aF11583.901191711426
aF11500.089668273926
aF11325.872619628906
aF11186.166831970215
aF11306.891883850098
aF11464.140663146973
aF11497.038024902344
aF11557.396171569824
aF11224.302322387695
aF11136.704467773438
aF11392.143463134766
aF11450.889724731445
aF11188.63313293457
aF11521.572341918945
aF11359.680694580078
aF11503.331764221191
aF11059.603469848633
aF10996.60442352295
aF11217.960746765137
aF11117.643562316895
aF11318.733963012695
aF11550.159942626953
aF11415.02515411377
aF11241.531600952148
aF10970.567825317383
aF11022.889373779297
aF10842.133224487305
aF11115.011627197266
aF10789.497367858887
aF10720.667892456055
aF10786.36141204834
aF10789.38860321045
aF11202.199920654297
aF10997.396598815918
aF10763.038681030273
aF10737.272621154785
aF10839.618179321289
aF10659.062858581543
aF11243.463363647461
aF11471.253044128418
aF11172.631034851074
aF10635.793151855469
aF10798.674224853516
aF10579.050796508789
aF10634.438919067383
aF11345.396034240723
aF10458.408584594727
aF10689.393577575684
aF10545.800773620605
aF10555.565399169922
aF10554.338912963867
aF10471.444175720215
aF10320.349975585938
aF10470.850257873535
aF10733.842567443848
aF10429.595153808594
aF10386.211067199707
aF10539.254791259766
aF10365.526901245117
aF10481.745872497559
aF10393.694450378418
aF10198.839752197266
aF10115.783638000488
aF10563.161239624023
aF10292.46826171875
aF10265.619918823242
aF10308.976821899414
aF10120.348457336426
aF10131.364418029785
aF10285.455726623535
aF10070.601470947266
aF10047.187408447266
aF10245.452590942383
aF10027.71223449707
aF9853.721282958984
aF10163.68773651123
aF10167.007209777832
aF10027.112846374512
aF10182.933532714844
aF10115.723594665527
aF10118.674789428711
aF9955.456985473633
aF10024.937705993652
aF9934.034843444824
aF9918.475914001465
aF9851.24114227295
aF9891.547958374023
aF9883.04485321045
aF9998.43620300293
aF10091.094589233398
aF9880.161659240723
aF9961.655708312988
aF9803.301399230957
aF9890.582061767578
aF9929.385116577148
aF9679.633995056152
aF9563.034294128418
aF9629.141456604004
aF9567.811996459961
aF9644.347450256348
aF9591.84146118164
aF9603.555374145508
aF9493.432846069336
aF9892.850578308105
aF9788.850296020508
aF9550.23836517334
aF9368.968711853027
aF9380.78946685791
aF9359.920547485352
aF9352.901985168457
aF9588.285499572754
aF9318.15470123291
aF9348.079956054688
aF9420.516654968262
aF9611.785652160645
aF9516.959564208984
aF9477.14372253418
aF9456.680145263672
aF9314.893768310547
aF9357.741180419922
aF9601.15852355957
aF9603.721496582031
aF9469.40599822998
aF9141.458740234375
aF9372.350875854492
aF9116.685371398926
aF9034.7905960083
aF9061.01148223877
aF9048.206596374512
aF9192.549095153809
aF9177.511009216309
aF9446.110916137695
aF9435.109817504883
aF9089.25269317627
aF8916.47314453125
aF9079.674392700195
aF9026.658996582031
aF9279.490097045898
aF8979.564331054688
aF8784.577308654785
aF8812.642852783203
aF8783.208992004395
aF8942.818725585938
aF9237.829528808594
aF9126.022468566895
aF8914.21566772461
aF8810.071060180664
aF8859.809341430664
aF8720.083381652832
aF8842.287940979004
aF8762.200157165527
aF8873.151657104492
aF8719.669258117676
aF9149.988311767578
aF8844.729469299316
aF8858.27262878418
aF8738.162605285645
aF8622.66919708252
aF8444.031578063965
aF8959.97348022461
aF8499.072257995605
aF8682.528648376465
aF8612.379493713379
aF8811.16820526123
aF8542.542869567871
aF8553.165077209473
aF8463.746253967285
aF8465.722244262695
aF8677.507301330566
aF8561.106399536133
aF8583.439712524414
aF8850.641746520996
aF8486.486854553223
aF8396.134819030762
aF8606.776084899902
aF8472.358268737793
aF8371.156814575195
aF8619.74819946289
aF8696.547256469727
aF8340.470237731934
aF8489.03229522705
aF8250.18724822998
aF8386.838027954102
aF8401.332550048828
aF8217.959945678711
aF8264.354583740234
aF8326.909103393555
aF8431.989082336426
aF8721.463172912598
aF8673.872482299805
aF8395.375274658203
aF8208.359672546387
aF8356.645149230957
aF8196.531173706055
aF8156.642684936523
aF8086.0522537231445
aF8248.178115844727
aF7870.639022827148
aF8021.330375671387
aF7849.9379959106445
aF7872.279327392578
aF8105.638076782227
aF8015.153282165527
aF8118.177398681641
aF7974.93293762207
aF7883.458518981934
aF7776.650970458984
aF7699.021072387695
aF7935.456390380859
aF7933.025665283203
aF7906.648956298828
aF7784.748863220215
aF7833.310073852539
aF8038.485702514648
aF7841.623680114746
aF7672.796318054199
aF7640.45637512207
aF7743.079063415527
aF7622.667572021484
aF7545.3505859375
aF7537.592430114746
aF7528.955307006836
aF7884.898780822754
aF7673.560119628906
aF7715.742073059082
aF7551.407730102539
aF7769.624237060547
aF7536.6237869262695
aF7460.208656311035
aF7823.521049499512
aF7460.544296264648
aF7677.050392150879
aF7505.567581176758
aF7487.452087402344
aF7753.117240905762
aF7675.860076904297
aF7646.625991821289
aF7538.665321350098
aF7594.449195861816
aF7416.546417236328
aF7613.621612548828
aF7287.674057006836
aF7258.061943054199
aF7312.401111602783
aF7302.386756896973
aF7286.740577697754
aF7580.556594848633
aF7312.136100769043
aF7499.097145080566
aF7239.329391479492
aF7338.839378356934
aF7606.053619384766
aF7526.828010559082
aF7034.673568725586
aF7188.901741027832
aF7245.209228515625
aF7196.88883972168
aF7019.918434143066
aF7034.951103210449
aF7254.720809936523
aF7270.8178634643555
aF7754.808921813965
aF7137.2864990234375
aF7240.172622680664
aF7188.503677368164
aF7108.606994628906
aF7001.130073547363
aF6911.255641937256
aF7234.864208221436
aF7109.95133972168
aF6929.775337219238
aF7170.910942077637
aF7325.32124710083
aF7035.120094299316
aF6969.55046081543
aF7106.535087585449
aF7030.196838378906
aF7115.577373504639
aF7152.762741088867
aF7191.847679138184
aF6608.84700012207
aF6845.58952331543
aF6669.743507385254
aF6864.892539978027
aF6618.60359954834
aF6734.03018951416
aF6843.182334899902
aF6945.691272735596
aF6820.774612426758
aF6565.9974365234375
aF6970.437477111816
aF6809.1967697143555
aF6680.657539367676
aF6621.499839782715
aF6744.993804931641
aF6785.477035522461
aF6522.914562225342
aF6530.392181396484
aF6470.407012939453
aF6412.432464599609
aF6606.7939376831055
aF6525.838104248047
aF6429.746356964111
aF6654.266265869141
aF6472.477149963379
aF6938.107971191406
aF6507.266708374023
aF6703.600036621094
aF6638.943031311035
aF6498.094749450684
aF6219.196613311768
aF6471.566787719727
aF6718.141448974609
aF6808.279624938965
aF6275.225486755371
aF6418.1472816467285
aF6617.18436050415
aF6339.070449829102
aF6229.826622009277
aF6294.80863571167
aF6087.604644775391
aF6057.824890136719
aF6238.508567810059
aF6392.087211608887
aF6246.2216796875
aF6426.104415893555
aF6545.8668212890625
aF6240.292083740234
aF6121.008148193359
aF6201.938781738281
aF6109.512989044189
aF5954.5358963012695
aF6069.134899139404
aF6045.339130401611
aF5961.479591369629
aF6158.969879150391
aF5973.035648345947
aF6153.60408782959
aF6056.128757476807
aF6268.303760528564
aF5923.751396179199
aF6159.02950668335
aF6422.741310119629
aF5998.788051605225
aF5920.225784301758
aF5990.095706939697
aF5812.593532562256
aF5860.580619812012
aF6793.143852233887
aF6051.678981781006
aF5897.402973175049
aF5776.160301208496
aF5994.743511199951
aF5858.330017089844
aF5926.344997406006
aF5722.815979003906
aF5604.562469482422
aF5627.594688415527
aF5612.67179107666
aF5587.716484069824
aF5685.745811462402
aF5701.362415313721
aF5571.091197967529
aF5994.583065032959
aF5881.070545196533
aF5811.214447021484
aF5623.996772766113
aF5755.773788452148
aF5930.214469909668
aF5686.347793579102
aF5774.419204711914
aF5551.723045349121
aF5512.03759765625
aF5433.013256072998
aF5798.116012573242
aF5475.829196929932
aF5450.838653564453
aF5364.56356048584
aF5643.121150970459
aF5442.640850067139
aF5320.350856781006
aF5323.8637619018555
aF5725.9531326293945
aF5904.942611694336
aF6193.716930389404
aF5787.897449493408
aF5318.491512298584
aF5558.474807739258
aF5500.858982086182
aF5492.007995605469
aF5272.749458312988
aF5427.989654541016
aF5226.512722015381
aF5289.499221801758
aF5485.680000305176
aF5287.93830871582
aF5391.515140533447
aF5447.39506149292
aF5229.673114776611
aF5417.585983276367
aF5155.06575012207
aF5012.57950592041
aF5241.631938934326
aF5388.030517578125
aF5318.707790374756
aF5514.568675994873
aF5417.559833526611
aF5173.745990753174
aF5112.470943450928
aF5130.853412628174
aF5121.563671112061
aF5207.861354827881
aF5130.727951049805
aF4951.945682525635
aF4967.101016998291
aF5114.232944488525
aF5002.596797943115
aF5476.3178787231445
aF4992.0130043029785
aF5180.078506469727
aF5094.724025726318
aF5130.995666503906
aF4983.002143859863
aF4964.804664611816
aF4946.721920013428
aF4729.155128479004
aF4682.374771118164
aF4669.69811630249
aF4703.200645446777
aF4706.705108642578
aF4669.779804229736
aF4620.789169311523
aF4877.554161071777
aF4884.742580413818
aF4993.247470855713
aF5052.953929901123
aF4983.701976776123
aF5236.204406738281
aF4800.9708251953125
aF4613.02653503418
aF4590.585151672363
aF4562.365791320801
aF4487.532939910889
aF4545.1738204956055
aF4592.827980041504
aF4769.4499588012695
aF4749.201866149902
aF4703.587894439697
aF4687.854923248291
aF4719.341594696045
aF4556.773471832275
aF4604.036037445068
aF4776.214954376221
aF4597.2145652771
aF4480.395866394043
aF4525.388668060303
aF4699.141990661621
aF4929.601375579834
aF4593.188045501709
aF4393.202751159668
aF4337.116073608398
aF4381.470996856689
aF4354.1982345581055
aF4535.31608581543
aF4482.507789611816
aF4700.174404144287
aF4774.403469085693
aF4427.556243896484
aF4559.4190673828125
aF4572.231853485107
aF4541.672336578369
aF4328.675800323486
aF4444.347278594971
aF4440.706638336182
aF4249.123210906982
aF4151.555732727051
aF4213.033039093018
aF4580.770221710205
aF4389.501174926758
aF4240.194038391113
aF4120.511962890625
aF4069.9161338806152
aF4244.486236572266
aF4250.879684448242
aF4333.385459899902
aF4238.025051116943
aF4164.655700683594
aF4202.6381759643555
aF3974.9762382507324
aF3974.4772338867188
aF4198.833065032959
aF4459.646350860596
aF4092.8647994995117
aF4457.373683929443
aF4355.562984466553
aF4259.975547790527
aF4190.957550048828
aF4538.546836853027
aF3901.164249420166
aF4260.275882720947
aF4723.095275878906
aF4207.859935760498
aF4135.365489959717
aF4098.138862609863
aF4273.504619598389
aF4207.352558135986
aF4069.809223175049
aF3987.542953491211
aF3791.358699798584
aF3675.5238723754883
aF3799.7167739868164
aF3852.242618560791
aF3736.7606887817383
aF3972.620822906494
aF3976.622901916504
aF4023.899311065674
aF3910.738079071045
aF3948.438632965088
aF3892.4889640808105
aF3676.571517944336
aF3727.6956520080566
aF3624.225658416748
aF3726.396682739258
aF3930.1685104370117
aF3713.900676727295
aF3910.227363586426
aF4093.6923446655273
aF4124.513565063477
aF4038.2507705688477
aF4088.535572052002
aF3732.586887359619
aF3769.5210571289062
aF3698.399845123291
aF3720.4755897521973
aF3851.597515106201
aF3613.478374481201
aF3650.9150772094727
aF3623.1798934936523
aF3556.9440383911133
aF4061.6348152160645
aF3843.3885345458984
aF3614.968002319336
aF3908.9404106140137
aF3616.6542778015137
aF3586.4057540893555
aF3642.7018661499023
aF3810.9326782226562
aF3558.0284538269043
aF3777.5746154785156
aF3518.94482421875
aF3461.562919616699
aF3470.16463470459
aF3469.010871887207
aF3375.940589904785
aF3428.309726715088
aF3548.999069213867
aF3754.998218536377
aF3675.879482269287
aF3813.328586578369
aF3915.950496673584
aF3647.5477752685547
aF3410.4941272735596
aF3681.0365562438965
aF3650.609420776367
aF3489.940143585205
aF3393.692050933838
aF3539.7807960510254
aF3297.443649291992
aF3414.36580657959
aF3420.429801940918
aF3117.8616046905518
aF3067.2912635803223
aF3085.368200302124
aF3186.665199279785
aF3394.844753265381
aF3327.772792816162
aF3151.2848052978516
aF3297.880359649658
aF3280.2502822875977
aF3297.1443061828613
aF3455.446865081787
aF3322.1832180023193
aF3558.475284576416
aF3209.3043365478516
aF3132.7749786376953
aF3317.6752128601074
aF3412.913148880005
aF3222.911979675293
aF3105.281400680542
aF3181.244430541992
aF3638.147680282593
aF3342.3388442993164
aF3177.224588394165
aF3375.260715484619
aF3411.330183029175
aF3429.8885955810547
aF3225.5065116882324
aF3075.1337146759033
aF2975.226909637451
aF2956.703845977783
aF2863.4464435577393
aF2800.8463344573975
aF2792.9381351470947
aF2838.667022705078
aF2814.969903945923
aF2954.661632537842
aF2956.303066253662
aF3045.9355812072754
aF2888.6707458496094
aF2918.705572128296
aF3077.894205093384
aF3399.993139266968
aF3021.9165630340576
aF2906.850273132324
aF2872.6613445281982
aF3011.0783042907715
aF2970.684823989868
aF3020.153667449951
aF3226.364694595337
aF2930.418390274048
aF2997.295305252075
aF2761.9765014648438
aF2625.90753364563
aF2568.355249404907
aF2694.2064723968506
aF3125.28231048584
aF2799.552967071533
aF2820.651361465454
aF2782.273012161255
aF2863.610902786255
aF2635.330816268921
aF2810.3067722320557
aF2813.4153423309326
aF2875.4377613067627
aF2963.2750492095947
aF2883.106653213501
aF3025.8887367248535
aF3024.3701343536377
aF2940.8523178100586
aF2981.8997650146484
aF2826.0040493011475
aF2851.550184249878
aF2868.9935932159424
aF2783.0057163238525
aF2653.14981842041
aF2759.9320278167725
aF2843.784772872925
aF2768.92706489563
aF2691.626344680786
aF2659.0164375305176
aF2846.6422729492188
aF2705.8931159973145
aF2503.2565784454346
aF2449.124334335327
aF2468.796880722046
aF2642.367607116699
aF2590.7421474456787
aF2686.2348442077637
aF2660.405569076538
aF2590.1329860687256
aF2743.7668228149414
aF2544.776777267456
aF2583.097364425659
aF2693.536386489868
aF2683.301670074463
aF2854.7432041168213
aF2426.5170402526855
aF2544.7832832336426
aF2451.806734085083
aF2474.547616958618
aF2424.132276535034
aF2347.933448791504
aF2394.9925804138184
aF2441.2697925567627
aF2553.3903045654297
aF2698.7162590026855
aF2505.9251651763916
aF2672.9923305511475
aF2811.3403873443604
aF2677.6698837280273
aF2632.7439250946045
aF2312.688507080078
aF2329.9970684051514
aF2422.159927368164
aF2537.742778778076
aF2413.601972579956
aF2327.626621246338
aF2422.931806564331
aF2613.852876663208
aF2521.4000930786133
aF2416.8780212402344
aF2575.327024459839
aF2477.5092792510986
aF2322.8618183135986
aF2457.993398666382
aF2224.915481567383
aF2317.2182235717773
aF2217.2657985687256
aF2541.928930282593
aF2457.617021560669
aF2456.8273220062256
aF2519.669921875
aF2438.4241104125977
aF2277.105535507202
aF2325.93692779541
aF2210.806423187256
aF2438.5288887023926
aF2767.673013687134
aF2625.8415718078613
aF2369.0760822296143
aF2437.8267765045166
aF2211.398250579834
aF2063.1148052215576
aF2008.8263187408447
aF2098.930446624756
aF2084.0462379455566
aF2325.9343128204346
aF2389.76771736145
aF2301.6867065429688
aF2166.393171310425
aF2062.7118492126465
aF2012.375228881836
aF2095.1140747070312
aF2132.4013996124268
aF1999.4700813293457
aF2097.7717094421387
aF2017.78098487854
aF2081.672197341919
aF2305.8673458099365
aF2349.04581451416
aF2321.695827484131
aF2211.5171852111816
aF2218.942087173462
aF2103.2685565948486
aF2209.342435836792
aF1900.8456554412842
aF1805.2037334442139
aF1830.927833557129
aF2003.0991039276123
aF1781.2391052246094
aF1972.8427429199219
aF1907.5795059204102
aF2103.1017150878906
aF2399.3275871276855
aF2152.101064682007
aF2109.0355052948
aF2346.336576461792
aF2017.263750076294
aF2258.4073333740234
aF2114.9291076660156
aF2102.366491317749
aF2646.3241786956787
aF2382.37451171875
aF2206.215919494629
aF2213.096342086792
aF2086.7573833465576
aF2118.918207168579
aF1915.7535820007324
aF1970.137113571167
aF2173.3635025024414
aF1952.8554000854492
aF2052.3544960021973
aF1750.3401107788086
aF1668.196774482727
aF1782.4601192474365
aF1681.480453491211
aF1620.9568500518799
aF1703.4677152633667
aF2192.6792030334473
aF1927.6972274780273
aF1913.9626502990723
aF1722.5505647659302
aF1703.1734399795532
aF1865.2752113342285
aF2086.6511726379395
aF2269.338701248169
aF1893.0637702941895
aF1917.900053024292
aF1877.6084661483765
aF1966.4135055541992
aF1831.2892169952393
aF1675.6209735870361
aF1760.3245258331299
aF1782.538589477539
aF1918.3557605743408
aF1646.2430324554443
aF1781.2125091552734
aF1812.7013702392578
aF1872.6730823516846
aF2091.8397827148438
aF1875.123296737671
aF1718.1396074295044
aF1887.9529438018799
aF1761.5398654937744
aF1748.6201314926147
aF1705.5687942504883
aF1605.3226795196533
aF1573.2755527496338
aF1636.5778732299805
aF1683.4058904647827
aF1766.9116067886353
aF1716.6408100128174
aF1622.1566257476807
aF1532.3635416030884
aF1434.2036333084106
aF1500.136996269226
aF1566.9355926513672
aF1567.6426858901978
aF1616.8210344314575
aF1555.9189939498901
aF1571.5289764404297
aF1712.919101715088
aF1662.3004331588745
aF1829.160376548767
aF1666.2718410491943
aF1684.8850708007812
aF1906.955852508545
aF1707.0765562057495
aF1919.9741096496582
aF1857.6926536560059
aF1627.8657417297363
aF1758.5282983779907
aF1768.3837804794312
aF1569.381607055664
aF1392.0509757995605
aF1337.745638847351
aF1308.7677764892578
aF1341.893961906433
aF1669.162678718567
aF1686.3866968154907
aF1432.7878828048706
aF1445.0569868087769
aF1302.9345445632935
aF1357.1682262420654
aF1260.5947160720825
aF1263.653359413147
aF1336.1753368377686
aF1467.1140842437744
aF1735.8891620635986
aF1919.9569463729858
aF1620.8188638687134
aF1503.4977111816406
aF1551.1144981384277
aF1730.9310846328735
aF1679.5952529907227
aF1500.6616764068604
aF1504.4245052337646
aF2144.682020187378
aF1460.7717733383179
aF1438.0143013000488
aF1620.499137878418
aF1351.6947774887085
aF1375.5491046905518
aF1597.7407503128052
aF1770.3187017440796
aF1951.1277294158936
aF1529.8781280517578
aF2077.525005340576
aF1577.1397399902344
aF1941.6111755371094
aF1364.1626272201538
aF1404.5643072128296
aF1245.3325128555298
aF1432.3540182113647
aF1412.218716621399
aF1782.3389682769775
aF1454.338638305664
aF1511.5570945739746
aF1443.3005361557007
aF1626.1383876800537
aF1640.12357711792
aF1459.9341249465942
aF1263.701964378357
aF1490.2935943603516
aF1514.6760921478271
aF1460.3243608474731
aF1331.9994640350342
aF1371.5150728225708
aF1274.932448387146
aF1344.4184923171997
aF1430.843463897705
aF2414.0475749969482
aF1323.966941833496
aF1212.8491039276123
aF1123.1547079086304
aF1115.3536901474
aF1063.066258430481
aF1049.9870805740356
aF1030.4271430969238
aF995.7830610275269
aF1026.8747701644897
aF1094.7908935546875
aF1154.262731552124
aF1305.4483127593994
aF1379.1132984161377
aF1393.4741020202637
aF1349.0001935958862
aF1253.7780933380127
aF1309.434790611267
aF1261.403468132019
aF1109.7139205932617
aF1187.3309879302979
aF1314.9064836502075
aF1583.4570293426514
aF1670.0201787948608
aF1501.4894571304321
aF1489.2576808929443
aF1477.1259689331055
aF1461.5377197265625
aF1206.2190561294556
aF1138.398564338684
aF1203.3823051452637
aF1327.7477712631226
aF1210.5252447128296
aF1303.4647417068481
aF1188.3567371368408
aF1510.4548540115356
aF1264.3890352249146
aF1562.3617038726807
aF1406.560965538025
aF1308.2025337219238
aF1133.5732231140137
aF1230.0365762710571
aF1043.0096158981323
aF971.9680547714233
aF931.4658393859863
aF941.6490964889526
aF956.6818466186523
aF983.0712833404541
aF960.3540277481079
aF1039.1926746368408
aF1178.6206302642822
aF1409.1674604415894
aF1192.4950857162476
aF1371.34823513031
aF1518.945553779602
aF1371.6217651367188
aF1167.4884366989136
aF1322.8459024429321
aF1411.7805948257446
aF1472.3242893218994
aF1185.5095701217651
aF1100.560923576355
aF1458.5987749099731
aF1254.9272994995117
aF1149.5685005187988
aF1204.2662944793701
aF968.7033424377441
aF1014.2734460830688
aF999.6733870506287
aF974.9549884796143
aF918.9344501495361
aF890.3424558639526
aF945.5161962509155
aF979.7721199989319
aF888.0021591186523
aF811.7195515632629
aF795.4404530525208
aF804.3364448547363
aF806.4999380111694
aF887.5872082710266
aF856.6872892379761
aF827.438235282898
aF886.6241984367371
aF861.7110805511475
aF825.5466194152832
aF945.633939743042
aF895.1918983459473
aF1224.5927095413208
aF1182.1262063980103
aF1475.5138273239136
aF1590.6067457199097
aF1194.1183114051819
aF1301.411828994751
aF1373.5803852081299
aF1188.5740051269531
aF1186.241675376892
aF1118.0305843353271
aF1857.3196058273315
aF1053.289568901062
aF1190.903052330017
aF1118.9436445236206
aF957.0008115768433
aF1041.043828010559
aF884.1143136024475
aF1142.8951663970947
aF1069.3745937347412
aF876.8126873970032
aF852.7919154167175
aF893.2527623176575
aF831.374538898468
aF855.5194487571716
aF817.9814128875732
aF721.4263682365417
aF761.4537434577942
aF718.9454250335693
aF757.4528279304504
aF826.6955399513245
aF722.5457715988159
aF821.5491847991943
aF839.7815523147583
aF870.7045474052429
aF779.690158367157
aF1108.0082955360413
aF1548.8849992752075
aF1285.350788116455
aF942.663809299469
aF1169.5961685180664
aF1005.295777797699
aF848.0600895881653
aF780.4161109924316
aF1136.701861858368
aF1129.0290923118591
aF853.7920475006104
aF947.8069777488708
aF953.9047498703003
aF1091.3307356834412
aF993.4937853813171
aF952.6965661048889
aF956.378559589386
aF971.0203523635864
aF997.5026264190674
aF983.094123840332
aF855.2049422264099
aF942.4911761283875
aF1171.9484639167786
aF1253.4049215316772
aF1120.0033469200134
aF1130.9598121643066
aF1158.0513372421265
aF1092.0002093315125
aF1019.9792289733887
aF1107.1021633148193
aF873.8932476043701
aF856.9081935882568
aF950.0781321525574
aF813.8656439781189
aF827.313530921936
aF764.9605531692505
aF730.0410470962524
aF777.6602396965027
aF738.0173668861389
aF761.122058391571
aF1025.9196643829346
aF1190.7050743103027
aF960.8129315376282
aF959.0937166213989
aF1039.7986426353455
aF801.0187106132507
aF832.4694609642029
aF690.0329918861389
aF679.6838073730469
aF649.6632905006409
aF588.450469493866
aF587.3759174346924
aF580.8119201660156
aF564.5356035232544
aF542.3237442970276
aF530.3399810791016
aF551.0016484260559
aF548.5069169998169
aF549.6098580360413
aF525.1309309005737
aF538.8959984779358
aF645.9354877471924
aF685.6223735809326
aF1226.9657473564148
aF1244.0231165885925
aF907.2460417747498
aF825.6253290176392
aF991.884476184845
aF912.8077731132507
aF1148.5027418136597
aF1028.707010269165
aF1331.8179001808167
aF737.4465579986572
aF993.4834418296814
aF970.7258901596069
aF863.9124321937561
aF993.1789026260376
aF1011.1771249771118
aF1345.0637907981873
aF1252.0937242507935
aF938.3763589859009
aF933.0934772491455
aF773.1708383560181
aF921.1568856239319
aF843.3860454559326
aF822.8661909103394
aF713.3129725456238
aF749.4424934387207
aF645.3136973381042
aF1076.6302638053894
aF749.5895357131958
aF930.2822360992432
aF1102.4824299812317
aF1061.908770084381
aF1086.675024986267
aF863.6868767738342
aF670.6879553794861
aF576.3769416809082
aF513.8363566398621
aF491.5608949661255
aF474.6076111793518
aF468.655321598053
aF453.98280000686646
aF450.2193078994751
aF484.53765535354614
aF445.8859202861786
aF431.439199924469
aF442.3212752342224
aF447.21229219436646
aF494.2490243911743
aF738.3966345787048
aF817.3203029632568
aF997.5030794143677
aF1184.2904505729675
aF859.5347485542297
aF1031.8290696144104
aF1084.1877226829529
aF1320.0226454734802
aF1054.854799747467
aF961.0813670158386
aF910.3007187843323
aF874.8212895393372
aF917.7220005989075
aF939.2527379989624
aF1158.950807094574
aF812.4025807380676
aF727.2786912918091
aF811.7833094596863
aF752.2982268333435
aF726.9198346138
aF673.6468033790588
aF625.2962412834167
aF554.991376876831
aF463.4713988304138
aF448.8246114253998
aF440.2322623729706
aF467.3699049949646
aF446.9909451007843
aF410.4897994995117
aF415.44008684158325
aF410.60857224464417
aF388.12559509277344
aF387.24253368377686
aF386.8524851799011
aF372.01899433135986
aF442.6593039035797
aF433.13306403160095
aF796.3788895606995
aF832.4792313575745
aF859.6404132843018
aF761.5915153026581
aF875.8280725479126
aF719.5690183639526
aF788.4058403968811
aF775.5480389595032
aF748.346134185791
aF670.8674249649048
aF799.9462203979492
aF925.5089502334595
aF1178.064205646515
aF993.5897793769836
aF812.4284892082214
aF861.9840970039368
aF706.7941970825195
aF1286.8698348999023
aF926.0527024269104
aF1230.6678466796875
aF911.8765530586243
aF1045.0572090148926
aF607.9403395652771
aF669.0585632324219
aF1027.8925790786743
aF758.3745684623718
aF867.8623008728027
aF749.8719387054443
aF815.1978650093079
aF977.0063719749451
aF658.8161334991455
aF1020.5725383758545
aF630.3527457714081
aF582.0934784412384
aF602.036417722702
aF547.3106620311737
aF489.3499183654785
aF511.16273951530457
aF563.3024010658264
aF627.85649061203
aF495.206205368042
aF499.8314211368561
aF467.55462884902954
aF521.8723266124725
aF533.057954788208
aF567.1368975639343
aF458.07452058792114
aF440.8267414569855
aF393.38112235069275
aF443.73266530036926
aF510.42472076416016
aF543.443793296814
aF886.8717412948608
aF785.9741668701172
aF732.5891008377075
aF931.779098033905
aF817.6440720558167
aF986.7886424064636
aF710.3934369087219
aF629.4209580421448
aF647.3922753334045
aF774.087281703949
aF852.7756433486938
aF630.0079617500305
aF635.4268221855164
aF572.9534330368042
aF1050.0228066444397
aF575.0678029060364
aF468.46865797042847
aF428.48645782470703
aF404.25911474227905
aF458.6602475643158
aF477.9212899208069
aF460.07145047187805
aF442.7826404571533
aF851.8603348731995
aF632.2605981826782
aF702.0172317028046
aF484.83563351631165
aF606.3051192760468
aF864.9698004722595
aF978.9320592880249
aF972.9958648681641
aF860.9401874542236
aF778.9764394760132
aF758.3639054298401
aF600.0927739143372
aF487.7607936859131
aF428.0787081718445
aF500.1541225910187
aF428.71345257759094
aF446.53768157958984
aF482.0809347629547
aF354.7205774784088
aF331.08400201797485
aF321.17687463760376
aF374.0165421962738
aF346.4506423473358
aF403.5011467933655
aF339.4432809352875
aF315.4229598045349
aF303.68066239356995
aF340.0371105670929
aF366.80476212501526
aF465.35781168937683
aF550.96511054039
aF554.850777387619
aF545.0491905212402
aF604.8034768104553
aF633.1351540088654
aF597.5358753204346
aF635.730299949646
aF631.9115335941315
aF685.5382447242737
aF509.4144549369812
aF699.1761634349823
aF733.6658391952515
aF688.2131938934326
aF787.4810128211975
aF780.7821040153503
aF667.0331444740295
aF729.3698754310608
aF596.6238205432892
aF721.1381931304932
aF800.5476033687592
aF634.8046545982361
aF591.2454023361206
aF593.8811802864075
aF598.3536579608917
aF605.7722308635712
aF582.389062166214
aF529.6341767311096
aF627.1925251483917
aF551.4390375614166
aF449.8786029815674
aF565.9190766811371
aF390.85690331459045
aF329.904013633728
aF318.23184752464294
aF316.6055827140808
aF295.6297650337219
aF377.5593509674072
aF372.3339190483093
aF349.3375642299652
aF296.4437186717987
aF316.19894003868103
aF321.34315037727356
aF350.95171761512756
aF419.4287009239197
aF525.7881956100464
aF507.26500940322876
aF503.3038079738617
aF576.4379889965057
aF493.9548017978668
aF440.94901752471924
aF431.5366544723511
aF940.3743479251862
aF628.4470019340515
aF734.3752222061157
aF732.1211905479431
aF695.9576301574707
aF828.6154179573059
aF603.1616115570068
aF434.32548999786377
aF516.2648758888245
aF469.61922454833984
aF458.39312720298767
aF345.0868980884552
aF336.7413766384125
aF314.0012378692627
aF282.86822068691254
aF264.2957057952881
aF276.1741816997528
aF267.5043468475342
aF267.7524253129959
aF277.43747079372406
aF264.4447613954544
aF259.7620939016342
aF262.3778222799301
aF278.5556604862213
aF299.4473853111267
aF304.2399353981018
aF496.9102747440338
aF477.6227557659149
aF610.1125960350037
aF572.0160462856293
aF765.1752786636353
aF813.7083032131195
aF623.6930022239685
aF641.8114831447601
aF801.0438239574432
aF759.7428851127625
aF719.7032041549683
aF536.0816373825073
aF488.3866229057312
aF640.741806268692
aF589.5948646068573
aF604.990364074707
aF566.1906614303589
aF398.89144682884216
aF385.4646315574646
aF584.932122707367
aF631.946480512619
aF498.210914850235
aF441.813437461853
aF415.7964150905609
aF487.0493440628052
aasS'epoch'
p10
I2286
s.