(dp0
S'total_time'
p1
cdatetime
datetime
p2
(S'\x00\x01\x01\x01\x00\x198\rmW'
p3
tp4
Rp5
sS'loss_list'
p6
(lp7
(lp8
I0
aI1
aI2
aI3
aI4
aI5
aI6
aI7
aI8
aI9
aI10
aI11
aI12
aI13
aI14
aI15
aI16
aI17
aI18
aI19
aI20
aI21
aI22
aI23
aI24
aI25
aI26
aI27
aI28
aI29
aI30
aI31
aI32
aI33
aI34
aI35
aI36
aI37
aI38
aI39
aI40
aI41
aI42
aI43
aI44
aI45
aI46
aI47
aI48
aI49
aa(lp9
F57844.40710449219
aF44131.64538574219
aF39932.827880859375
aF39051.82719421387
aF38450.06022644043
aF37993.52655029297
aF37647.3258972168
aF37437.50471496582
aF37128.01069641113
aF36890.86343383789
aF36707.348861694336
aF36554.4864654541
aF36350.392501831055
aF36246.912826538086
aF36105.06457519531
aF36007.31538391113
aF35883.13311767578
aF35038.08457946777
aF34859.15898132324
aF34775.03079223633
aF34639.21028137207
aF34584.44137573242
aF34464.157958984375
aF34362.212341308594
aF34281.126205444336
aF34164.005294799805
aF35050.67010498047
aF34054.25534057617
aF33812.2487487793
aF33701.94192504883
aF34592.475021362305
aF34601.040603637695
aF34817.323318481445
aF34708.29104614258
aF33393.24446105957
aF34371.972732543945
aF33474.85079956055
aF34438.515396118164
aF33383.55139160156
aF32418.535202026367
aF32239.602981567383
aF32742.07667541504
aF33490.61543273926
aF33418.615295410156
aF32356.041244506836
aF33043.44366455078
aF34372.5573425293
aF33739.64405822754
aF32904.74108886719
aF33382.281997680664
aasS'epoch'
p10
I49
s.