(dp0
S'total_time'
p1
cdatetime
datetime
p2
(S'\x00\x01\x01\x02\x0e+!\t\xd7&'
p3
tp4
Rp5
sS'loss_list'
p6
(lp7
(lp8
I0
aI1
aI2
aI3
aI4
aI5
aI6
aI7
aI8
aI9
aI10
aI11
aI12
aI13
aI14
aI15
aI16
aI17
aI18
aI19
aI20
aI21
aI22
aI23
aI24
aI25
aI26
aI27
aI28
aI29
aI30
aI31
aI32
aI33
aI34
aI35
aI36
aI37
aI38
aI39
aI40
aI41
aI42
aI43
aI44
aI45
aI46
aI47
aI48
aI49
aI50
aI51
aI52
aI53
aI54
aI55
aI56
aI57
aI58
aI59
aI60
aI61
aI62
aI63
aI64
aI65
aI66
aI67
aI68
aI69
aI70
aI71
aI72
aI73
aI74
aI75
aI76
aI77
aI78
aI79
aI80
aI81
aI82
aI83
aI84
aI85
aI86
aI87
aI88
aI89
aI90
aI91
aI92
aI93
aI94
aI95
aI96
aI97
aI98
aI99
aI100
aI101
aI102
aI103
aI104
aI105
aI106
aI107
aI108
aI109
aI110
aI111
aI112
aI113
aI114
aI115
aI116
aI117
aI118
aI119
aI120
aI121
aI122
aI123
aI124
aI125
aI126
aI127
aI128
aI129
aI130
aI131
aI132
aI133
aI134
aI135
aI136
aI137
aI138
aI139
aI140
aI141
aI142
aI143
aI144
aI145
aI146
aI147
aI148
aI149
aI150
aI151
aI152
aI153
aI154
aI155
aI156
aI157
aI158
aI159
aI160
aI161
aI162
aI163
aI164
aI165
aI166
aI167
aI168
aI169
aI170
aI171
aI172
aI173
aI174
aI175
aI176
aI177
aI178
aI179
aI180
aI181
aI182
aI183
aI184
aI185
aI186
aI187
aI188
aI189
aI190
aI191
aI192
aI193
aI194
aI195
aI196
aI197
aI198
aI199
aI200
aI201
aI202
aI203
aI204
aI205
aI206
aI207
aI208
aI209
aI210
aI211
aI212
aI213
aI214
aI215
aI216
aI217
aI218
aI219
aI220
aI221
aI222
aI223
aI224
aI225
aI226
aI227
aI228
aI229
aI230
aI231
aI232
aI233
aI234
aI235
aI236
aI237
aI238
aI239
aI240
aI241
aI242
aI243
aI244
aI245
aI246
aI247
aI248
aI249
aI250
aI251
aI252
aI253
aI254
aI255
aI256
aI257
aI258
aI259
aI260
aI261
aI262
aI263
aI264
aI265
aI266
aI267
aI268
aI269
aI270
aI271
aI272
aI273
aI274
aI275
aI276
aI277
aI278
aI279
aI280
aI281
aI282
aI283
aI284
aI285
aI286
aI287
aI288
aI289
aI290
aI291
aI292
aI293
aI294
aI295
aI296
aI297
aI298
aI299
aI300
aI301
aI302
aI303
aI304
aI305
aI306
aI307
aI308
aI309
aI310
aI311
aI312
aI313
aI314
aI315
aI316
aI317
aI318
aI319
aI320
aI321
aI322
aI323
aI324
aI325
aI326
aI327
aI328
aI329
aI330
aI331
aI332
aI333
aI334
aI335
aI336
aI337
aI338
aI339
aI340
aI341
aI342
aI343
aI344
aI345
aI346
aI347
aI348
aI349
aI350
aI351
aI352
aI353
aI354
aI355
aI356
aI357
aI358
aI359
aI360
aI361
aI362
aI363
aI364
aI365
aI366
aI367
aI368
aI369
aI370
aI371
aI372
aI373
aI374
aI375
aI376
aI377
aI378
aI379
aI380
aI381
aI382
aI383
aI384
aI385
aI386
aI387
aI388
aI389
aI390
aI391
aI392
aI393
aI394
aI395
aI396
aI397
aI398
aI399
aI400
aI401
aI402
aI403
aI404
aI405
aI406
aI407
aI408
aI409
aI410
aI411
aI412
aI413
aI414
aI415
aI416
aI417
aI418
aI419
aI420
aI421
aI422
aI423
aI424
aI425
aI426
aI427
aI428
aI429
aI430
aI431
aI432
aI433
aI434
aI435
aI436
aI437
aI438
aI439
aI440
aI441
aI442
aI443
aI444
aI445
aI446
aI447
aI448
aI449
aI450
aI451
aI452
aI453
aI454
aI455
aI456
aI457
aI458
aI459
aI460
aI461
aI462
aI463
aI464
aI465
aI466
aI467
aI468
aI469
aI470
aI471
aI472
aI473
aI474
aI475
aI476
aI477
aI478
aI479
aI480
aI481
aI482
aI483
aI484
aI485
aI486
aI487
aI488
aI489
aI490
aI491
aI492
aI493
aI494
aI495
aI496
aI497
aI498
aI499
aI500
aI501
aI502
aI503
aI504
aI505
aI506
aI507
aI508
aI509
aI510
aI511
aI512
aI513
aI514
aI515
aI516
aI517
aI518
aI519
aI520
aI521
aI522
aI523
aI524
aI525
aI526
aI527
aI528
aI529
aI530
aI531
aI532
aI533
aI534
aI535
aI536
aI537
aI538
aI539
aI540
aI541
aI542
aI543
aI544
aI545
aI546
aI547
aI548
aI549
aI550
aI551
aI552
aI553
aI554
aI555
aI556
aI557
aI558
aI559
aI560
aI561
aI562
aI563
aI564
aI565
aI566
aI567
aI568
aI569
aI570
aI571
aI572
aI573
aI574
aI575
aI576
aI577
aI578
aI579
aI580
aI581
aI582
aI583
aI584
aI585
aI586
aI587
aI588
aI589
aI590
aI591
aI592
aI593
aI594
aI595
aI596
aI597
aI598
aI599
aI600
aI601
aI602
aI603
aI604
aI605
aI606
aI607
aI608
aI609
aI610
aI611
aI612
aI613
aI614
aI615
aI616
aI617
aI618
aI619
aI620
aI621
aI622
aI623
aI624
aI625
aI626
aI627
aI628
aI629
aI630
aI631
aI632
aI633
aI634
aI635
aI636
aI637
aI638
aI639
aI640
aI641
aI642
aI643
aI644
aI645
aI646
aI647
aI648
aI649
aI650
aI651
aI652
aI653
aI654
aI655
aI656
aI657
aI658
aI659
aI660
aI661
aI662
aI663
aI664
aI665
aI666
aI667
aI668
aI669
aI670
aI671
aI672
aI673
aI674
aI675
aI676
aI677
aI678
aI679
aI680
aI681
aI682
aI683
aI684
aI685
aI686
aI687
aI688
aI689
aI690
aI691
aI692
aI693
aI694
aI695
aI696
aI697
aI698
aI699
aI700
aI701
aI702
aI703
aI704
aI705
aI706
aI707
aI708
aI709
aI710
aI711
aI712
aI713
aI714
aI715
aI716
aI717
aI718
aI719
aI720
aI721
aI722
aI723
aI724
aI725
aI726
aI727
aI728
aI729
aI730
aI731
aI732
aI733
aI734
aI735
aI736
aI737
aI738
aI739
aI740
aI741
aI742
aI743
aI744
aI745
aI746
aI747
aI748
aI749
aI750
aI751
aI752
aI753
aI754
aI755
aI756
aI757
aI758
aI759
aI760
aI761
aI762
aI763
aI764
aI765
aI766
aI767
aI768
aI769
aI770
aI771
aI772
aI773
aI774
aI775
aI776
aI777
aI778
aI779
aI780
aI781
aI782
aI783
aI784
aI785
aI786
aI787
aI788
aI789
aI790
aI791
aI792
aI793
aI794
aI795
aI796
aI797
aI798
aI799
aI800
aI801
aI802
aI803
aI804
aI805
aI806
aI807
aI808
aI809
aI810
aI811
aI812
aI813
aI814
aI815
aI816
aI817
aI818
aI819
aI820
aI821
aI822
aI823
aI824
aI825
aI826
aI827
aI828
aI829
aI830
aI831
aI832
aI833
aI834
aI835
aI836
aI837
aI838
aI839
aI840
aI841
aI842
aI843
aI844
aI845
aI846
aI847
aI848
aI849
aI850
aI851
aI852
aI853
aI854
aI855
aI856
aI857
aI858
aI859
aI860
aI861
aI862
aI863
aI864
aI865
aI866
aI867
aI868
aI869
aI870
aI871
aI872
aI873
aI874
aI875
aI876
aI877
aI878
aI879
aI880
aI881
aI882
aI883
aI884
aI885
aI886
aI887
aI888
aI889
aI890
aI891
aI892
aI893
aI894
aI895
aI896
aI897
aI898
aI899
aI900
aI901
aI902
aI903
aI904
aI905
aI906
aI907
aI908
aI909
aI910
aI911
aI912
aI913
aI914
aI915
aI916
aI917
aI918
aI919
aI920
aI921
aI922
aI923
aI924
aI925
aI926
aI927
aI928
aI929
aI930
aI931
aI932
aI933
aI934
aI935
aI936
aI937
aI938
aI939
aI940
aI941
aI942
aI943
aI944
aI945
aI946
aI947
aI948
aI949
aI950
aI951
aI952
aI953
aI954
aI955
aI956
aI957
aI958
aI959
aI960
aI961
aI962
aI963
aI964
aI965
aI966
aI967
aI968
aI969
aI970
aI971
aI972
aI973
aI974
aI975
aI976
aI977
aI978
aI979
aI980
aI981
aI982
aI983
aI984
aI985
aI986
aI987
aI988
aI989
aI990
aI991
aI992
aI993
aI994
aI995
aI996
aI997
aI998
aI999
aI1000
aI1001
aI1002
aI1003
aI1004
aI1005
aI1006
aI1007
aI1008
aI1009
aI1010
aI1011
aI1012
aI1013
aI1014
aI1015
aI1016
aI1017
aI1018
aI1019
aI1020
aI1021
aI1022
aI1023
aI1024
aI1025
aI1026
aI1027
aI1028
aI1029
aI1030
aI1031
aI1032
aI1033
aI1034
aI1035
aI1036
aI1037
aI1038
aI1039
aI1040
aI1041
aI1042
aI1043
aI1044
aI1045
aI1046
aI1047
aI1048
aI1049
aI1050
aI1051
aI1052
aI1053
aI1054
aI1055
aI1056
aI1057
aI1058
aI1059
aI1060
aI1061
aI1062
aI1063
aI1064
aI1065
aI1066
aI1067
aI1068
aI1069
aI1070
aI1071
aI1072
aI1073
aI1074
aI1075
aI1076
aI1077
aI1078
aI1079
aI1080
aI1081
aI1082
aI1083
aI1084
aI1085
aI1086
aI1087
aI1088
aI1089
aI1090
aI1091
aI1092
aI1093
aI1094
aI1095
aI1096
aI1097
aI1098
aI1099
aI1100
aI1101
aI1102
aI1103
aI1104
aI1105
aI1106
aI1107
aI1108
aI1109
aI1110
aI1111
aI1112
aI1113
aI1114
aI1115
aI1116
aI1117
aI1118
aI1119
aI1120
aI1121
aI1122
aI1123
aI1124
aI1125
aI1126
aI1127
aI1128
aI1129
aI1130
aI1131
aI1132
aI1133
aI1134
aI1135
aI1136
aI1137
aI1138
aI1139
aI1140
aI1141
aI1142
aI1143
aI1144
aI1145
aI1146
aI1147
aI1148
aI1149
aI1150
aI1151
aI1152
aI1153
aI1154
aI1155
aI1156
aI1157
aI1158
aI1159
aI1160
aI1161
aI1162
aI1163
aI1164
aI1165
aI1166
aI1167
aI1168
aI1169
aI1170
aI1171
aI1172
aI1173
aI1174
aI1175
aI1176
aI1177
aI1178
aI1179
aI1180
aI1181
aI1182
aI1183
aI1184
aI1185
aI1186
aI1187
aI1188
aI1189
aI1190
aI1191
aI1192
aI1193
aI1194
aI1195
aI1196
aI1197
aI1198
aI1199
aI1200
aI1201
aI1202
aI1203
aI1204
aI1205
aI1206
aI1207
aI1208
aI1209
aI1210
aI1211
aI1212
aI1213
aI1214
aI1215
aI1216
aI1217
aI1218
aI1219
aI1220
aI1221
aI1222
aI1223
aI1224
aI1225
aI1226
aI1227
aI1228
aI1229
aI1230
aI1231
aI1232
aI1233
aI1234
aI1235
aI1236
aI1237
aI1238
aI1239
aI1240
aI1241
aI1242
aI1243
aI1244
aI1245
aI1246
aI1247
aI1248
aI1249
aI1250
aI1251
aI1252
aI1253
aI1254
aI1255
aI1256
aI1257
aI1258
aI1259
aI1260
aI1261
aI1262
aI1263
aI1264
aI1265
aI1266
aI1267
aI1268
aI1269
aI1270
aI1271
aI1272
aI1273
aI1274
aI1275
aI1276
aI1277
aI1278
aI1279
aI1280
aI1281
aI1282
aI1283
aI1284
aI1285
aI1286
aI1287
aI1288
aI1289
aI1290
aI1291
aI1292
aI1293
aI1294
aI1295
aI1296
aI1297
aI1298
aI1299
aI1300
aI1301
aI1302
aI1303
aI1304
aI1305
aI1306
aI1307
aI1308
aI1309
aI1310
aI1311
aI1312
aI1313
aI1314
aI1315
aI1316
aI1317
aI1318
aI1319
aI1320
aI1321
aI1322
aI1323
aI1324
aI1325
aI1326
aI1327
aI1328
aI1329
aI1330
aI1331
aI1332
aI1333
aI1334
aI1335
aI1336
aI1337
aI1338
aI1339
aI1340
aI1341
aI1342
aI1343
aI1344
aI1345
aI1346
aI1347
aI1348
aI1349
aI1350
aI1351
aI1352
aI1353
aI1354
aI1355
aI1356
aI1357
aI1358
aI1359
aI1360
aI1361
aI1362
aI1363
aI1364
aI1365
aI1366
aI1367
aI1368
aI1369
aI1370
aI1371
aI1372
aI1373
aI1374
aI1375
aI1376
aI1377
aI1378
aI1379
aI1380
aI1381
aI1382
aI1383
aI1384
aI1385
aI1386
aI1387
aI1388
aI1389
aI1390
aI1391
aI1392
aI1393
aI1394
aI1395
aI1396
aI1397
aI1398
aI1399
aI1400
aI1401
aI1402
aI1403
aI1404
aI1405
aI1406
aI1407
aI1408
aI1409
aI1410
aI1411
aI1412
aI1413
aI1414
aI1415
aI1416
aI1417
aI1418
aI1419
aI1420
aI1421
aI1422
aI1423
aI1424
aI1425
aI1426
aI1427
aI1428
aI1429
aI1430
aI1431
aI1432
aI1433
aI1434
aI1435
aI1436
aI1437
aI1438
aI1439
aI1440
aI1441
aI1442
aI1443
aI1444
aI1445
aI1446
aI1447
aI1448
aI1449
aI1450
aI1451
aI1452
aI1453
aI1454
aI1455
aI1456
aI1457
aI1458
aI1459
aI1460
aI1461
aI1462
aI1463
aI1464
aI1465
aI1466
aI1467
aI1468
aI1469
aI1470
aI1471
aI1472
aI1473
aI1474
aI1475
aI1476
aI1477
aI1478
aI1479
aI1480
aI1481
aI1482
aI1483
aI1484
aI1485
aI1486
aI1487
aI1488
aI1489
aI1490
aI1491
aI1492
aI1493
aI1494
aI1495
aI1496
aI1497
aI1498
aI1499
aI1500
aI1501
aI1502
aI1503
aI1504
aI1505
aI1506
aI1507
aI1508
aI1509
aI1510
aI1511
aI1512
aI1513
aI1514
aI1515
aI1516
aI1517
aI1518
aI1519
aI1520
aI1521
aI1522
aI1523
aI1524
aI1525
aI1526
aI1527
aI1528
aI1529
aI1530
aI1531
aI1532
aI1533
aI1534
aI1535
aI1536
aI1537
aI1538
aI1539
aI1540
aI1541
aI1542
aI1543
aI1544
aI1545
aI1546
aI1547
aI1548
aI1549
aI1550
aI1551
aI1552
aI1553
aI1554
aI1555
aI1556
aI1557
aI1558
aI1559
aI1560
aI1561
aI1562
aI1563
aI1564
aI1565
aI1566
aI1567
aI1568
aI1569
aI1570
aI1571
aI1572
aI1573
aI1574
aI1575
aI1576
aI1577
aI1578
aI1579
aI1580
aI1581
aI1582
aI1583
aI1584
aI1585
aI1586
aI1587
aI1588
aI1589
aI1590
aI1591
aI1592
aI1593
aI1594
aI1595
aI1596
aI1597
aI1598
aI1599
aI1600
aI1601
aI1602
aI1603
aI1604
aI1605
aI1606
aI1607
aI1608
aI1609
aI1610
aI1611
aI1612
aI1613
aI1614
aI1615
aI1616
aI1617
aI1618
aI1619
aI1620
aI1621
aI1622
aI1623
aI1624
aI1625
aI1626
aI1627
aI1628
aI1629
aI1630
aI1631
aI1632
aI1633
aI1634
aI1635
aI1636
aI1637
aI1638
aI1639
aI1640
aI1641
aI1642
aI1643
aI1644
aI1645
aI1646
aI1647
aI1648
aI1649
aI1650
aI1651
aI1652
aI1653
aI1654
aI1655
aI1656
aI1657
aI1658
aI1659
aI1660
aI1661
aI1662
aI1663
aI1664
aI1665
aI1666
aI1667
aI1668
aI1669
aI1670
aI1671
aI1672
aI1673
aI1674
aI1675
aI1676
aI1677
aI1678
aI1679
aI1680
aI1681
aI1682
aI1683
aI1684
aI1685
aI1686
aI1687
aI1688
aI1689
aI1690
aI1691
aI1692
aI1693
aI1694
aI1695
aI1696
aI1697
aI1698
aI1699
aI1700
aI1701
aI1702
aI1703
aI1704
aI1705
aI1706
aI1707
aI1708
aI1709
aI1710
aI1711
aI1712
aI1713
aI1714
aI1715
aI1716
aI1717
aI1718
aI1719
aI1720
aI1721
aI1722
aI1723
aI1724
aI1725
aI1726
aI1727
aI1728
aI1729
aI1730
aI1731
aI1732
aI1733
aI1734
aI1735
aI1736
aI1737
aI1738
aI1739
aI1740
aI1741
aI1742
aI1743
aI1744
aI1745
aI1746
aI1747
aI1748
aI1749
aI1750
aI1751
aI1752
aI1753
aI1754
aI1755
aI1756
aI1757
aI1758
aI1759
aI1760
aI1761
aI1762
aI1763
aI1764
aI1765
aI1766
aI1767
aI1768
aI1769
aI1770
aI1771
aI1772
aI1773
aI1774
aI1775
aI1776
aI1777
aI1778
aI1779
aI1780
aI1781
aI1782
aI1783
aI1784
aI1785
aI1786
aI1787
aI1788
aI1789
aI1790
aI1791
aI1792
aI1793
aI1794
aI1795
aI1796
aI1797
aI1798
aI1799
aI1800
aI1801
aI1802
aI1803
aI1804
aI1805
aI1806
aI1807
aI1808
aI1809
aI1810
aI1811
aI1812
aI1813
aI1814
aI1815
aI1816
aI1817
aI1818
aI1819
aI1820
aI1821
aI1822
aI1823
aI1824
aI1825
aI1826
aI1827
aI1828
aI1829
aI1830
aI1831
aI1832
aI1833
aI1834
aI1835
aI1836
aI1837
aI1838
aI1839
aI1840
aI1841
aI1842
aI1843
aI1844
aI1845
aI1846
aI1847
aI1848
aI1849
aI1850
aI1851
aI1852
aI1853
aI1854
aI1855
aI1856
aI1857
aI1858
aI1859
aI1860
aI1861
aI1862
aI1863
aI1864
aI1865
aI1866
aI1867
aI1868
aI1869
aI1870
aI1871
aI1872
aI1873
aI1874
aI1875
aI1876
aI1877
aI1878
aI1879
aI1880
aI1881
aI1882
aI1883
aI1884
aI1885
aI1886
aI1887
aI1888
aI1889
aI1890
aI1891
aI1892
aI1893
aI1894
aI1895
aI1896
aI1897
aI1898
aI1899
aI1900
aI1901
aI1902
aI1903
aI1904
aI1905
aI1906
aI1907
aI1908
aI1909
aI1910
aI1911
aI1912
aI1913
aI1914
aI1915
aI1916
aI1917
aI1918
aI1919
aI1920
aI1921
aI1922
aI1923
aI1924
aI1925
aI1926
aI1927
aI1928
aI1929
aI1930
aI1931
aI1932
aI1933
aI1934
aI1935
aI1936
aI1937
aI1938
aI1939
aI1940
aI1941
aI1942
aI1943
aI1944
aI1945
aI1946
aI1947
aI1948
aI1949
aI1950
aI1951
aI1952
aI1953
aI1954
aI1955
aI1956
aI1957
aI1958
aI1959
aI1960
aI1961
aI1962
aI1963
aI1964
aI1965
aI1966
aI1967
aI1968
aI1969
aI1970
aI1971
aI1972
aI1973
aI1974
aI1975
aI1976
aI1977
aI1978
aI1979
aI1980
aI1981
aI1982
aI1983
aI1984
aI1985
aI1986
aI1987
aI1988
aI1989
aI1990
aI1991
aI1992
aI1993
aI1994
aI1995
aI1996
aI1997
aI1998
aI1999
aI2000
aI2001
aI2002
aI2003
aI2004
aI2005
aI2006
aI2007
aI2008
aI2009
aI2010
aI2011
aI2012
aI2013
aI2014
aI2015
aI2016
aI2017
aI2018
aI2019
aI2020
aI2021
aI2022
aI2023
aI2024
aI2025
aI2026
aI2027
aI2028
aI2029
aI2030
aI2031
aI2032
aI2033
aI2034
aI2035
aI2036
aI2037
aI2038
aI2039
aI2040
aI2041
aI2042
aI2043
aI2044
aI2045
aI2046
aI2047
aI2048
aI2049
aI2050
aI2051
aI2052
aI2053
aI2054
aI2055
aI2056
aI2057
aI2058
aI2059
aI2060
aI2061
aI2062
aI2063
aI2064
aI2065
aI2066
aI2067
aI2068
aI2069
aI2070
aI2071
aI2072
aI2073
aI2074
aI2075
aI2076
aI2077
aI2078
aI2079
aI2080
aI2081
aI2082
aI2083
aI2084
aI2085
aI2086
aI2087
aI2088
aI2089
aI2090
aI2091
aI2092
aI2093
aI2094
aI2095
aI2096
aI2097
aI2098
aI2099
aI2100
aI2101
aI2102
aI2103
aI2104
aI2105
aI2106
aI2107
aI2108
aI2109
aI2110
aI2111
aI2112
aI2113
aI2114
aI2115
aI2116
aI2117
aI2118
aI2119
aI2120
aI2121
aI2122
aI2123
aI2124
aI2125
aI2126
aI2127
aI2128
aI2129
aI2130
aI2131
aI2132
aI2133
aI2134
aI2135
aI2136
aI2137
aI2138
aI2139
aI2140
aI2141
aI2142
aI2143
aI2144
aI2145
aI2146
aI2147
aI2148
aI2149
aI2150
aI2151
aI2152
aI2153
aI2154
aI2155
aI2156
aI2157
aI2158
aI2159
aI2160
aI2161
aI2162
aI2163
aI2164
aI2165
aI2166
aI2167
aI2168
aI2169
aI2170
aI2171
aI2172
aI2173
aI2174
aI2175
aI2176
aI2177
aI2178
aI2179
aI2180
aI2181
aI2182
aI2183
aI2184
aI2185
aI2186
aI2187
aI2188
aI2189
aI2190
aI2191
aI2192
aI2193
aI2194
aI2195
aI2196
aI2197
aI2198
aI2199
aI2200
aI2201
aI2202
aI2203
aI2204
aI2205
aI2206
aI2207
aI2208
aI2209
aI2210
aI2211
aI2212
aI2213
aI2214
aI2215
aI2216
aI2217
aI2218
aI2219
aI2220
aI2221
aI2222
aI2223
aI2224
aI2225
aI2226
aI2227
aI2228
aI2229
aI2230
aI2231
aI2232
aI2233
aI2234
aI2235
aI2236
aI2237
aI2238
aI2239
aI2240
aI2241
aI2242
aI2243
aI2244
aI2245
aI2246
aI2247
aI2248
aI2249
aI2250
aI2251
aI2252
aI2253
aI2254
aI2255
aI2256
aI2257
aI2258
aI2259
aI2260
aI2261
aI2262
aI2263
aI2264
aI2265
aI2266
aI2267
aI2268
aI2269
aI2270
aI2271
aI2272
aI2273
aI2274
aI2275
aI2276
aI2277
aI2278
aI2279
aI2280
aI2281
aI2282
aI2283
aI2284
aI2285
aI2286
aI2287
aI2288
aI2289
aI2290
aI2291
aI2292
aI2293
aI2294
aI2295
aI2296
aI2297
aI2298
aI2299
aI2300
aI2301
aI2302
aI2303
aI2304
aI2305
aI2306
aI2307
aI2308
aI2309
aI2310
aI2311
aI2312
aI2313
aI2314
aI2315
aI2316
aI2317
aI2318
aI2319
aI2320
aI2321
aI2322
aI2323
aI2324
aI2325
aI2326
aI2327
aI2328
aI2329
aI2330
aI2331
aI2332
aI2333
aI2334
aI2335
aI2336
aI2337
aI2338
aI2339
aI2340
aI2341
aI2342
aI2343
aI2344
aI2345
aI2346
aI2347
aI2348
aI2349
aI2350
aI2351
aI2352
aI2353
aI2354
aI2355
aI2356
aI2357
aI2358
aI2359
aI2360
aI2361
aI2362
aI2363
aI2364
aI2365
aI2366
aI2367
aI2368
aI2369
aI2370
aI2371
aI2372
aI2373
aI2374
aI2375
aI2376
aI2377
aI2378
aI2379
aI2380
aI2381
aI2382
aI2383
aI2384
aI2385
aI2386
aI2387
aI2388
aI2389
aI2390
aI2391
aI2392
aI2393
aI2394
aI2395
aI2396
aI2397
aI2398
aI2399
aI2400
aI2401
aI2402
aI2403
aI2404
aI2405
aI2406
aI2407
aI2408
aI2409
aI2410
aI2411
aI2412
aI2413
aI2414
aI2415
aI2416
aI2417
aI2418
aI2419
aI2420
aI2421
aI2422
aI2423
aI2424
aI2425
aI2426
aI2427
aI2428
aI2429
aI2430
aI2431
aI2432
aI2433
aI2434
aI2435
aI2436
aI2437
aI2438
aI2439
aI2440
aI2441
aI2442
aI2443
aI2444
aI2445
aI2446
aI2447
aI2448
aI2449
aI2450
aI2451
aI2452
aI2453
aI2454
aI2455
aI2456
aI2457
aI2458
aI2459
aI2460
aI2461
aI2462
aI2463
aI2464
aI2465
aI2466
aI2467
aI2468
aI2469
aI2470
aI2471
aI2472
aI2473
aI2474
aI2475
aI2476
aI2477
aI2478
aI2479
aI2480
aI2481
aI2482
aI2483
aI2484
aI2485
aI2486
aI2487
aI2488
aI2489
aI2490
aI2491
aI2492
aI2493
aI2494
aI2495
aI2496
aI2497
aI2498
aI2499
aI2500
aI2501
aI2502
aI2503
aI2504
aI2505
aI2506
aI2507
aI2508
aI2509
aI2510
aI2511
aI2512
aI2513
aI2514
aI2515
aI2516
aI2517
aI2518
aI2519
aI2520
aI2521
aI2522
aI2523
aI2524
aI2525
aI2526
aI2527
aI2528
aI2529
aI2530
aI2531
aI2532
aI2533
aI2534
aI2535
aI2536
aI2537
aI2538
aI2539
aI2540
aI2541
aI2542
aI2543
aI2544
aI2545
aI2546
aI2547
aI2548
aI2549
aI2550
aI2551
aI2552
aI2553
aI2554
aI2555
aI2556
aI2557
aI2558
aI2559
aI2560
aI2561
aI2562
aI2563
aI2564
aI2565
aI2566
aI2567
aI2568
aI2569
aI2570
aI2571
aI2572
aI2573
aI2574
aI2575
aI2576
aI2577
aI2578
aI2579
aI2580
aI2581
aI2582
aI2583
aI2584
aI2585
aI2586
aI2587
aI2588
aI2589
aI2590
aI2591
aI2592
aI2593
aI2594
aI2595
aI2596
aI2597
aI2598
aI2599
aI2600
aI2601
aI2602
aI2603
aI2604
aI2605
aI2606
aI2607
aI2608
aI2609
aI2610
aI2611
aI2612
aI2613
aI2614
aI2615
aI2616
aI2617
aI2618
aI2619
aI2620
aI2621
aI2622
aI2623
aI2624
aI2625
aI2626
aI2627
aI2628
aI2629
aI2630
aI2631
aI2632
aI2633
aI2634
aI2635
aI2636
aI2637
aI2638
aI2639
aI2640
aI2641
aI2642
aI2643
aI2644
aI2645
aI2646
aI2647
aI2648
aI2649
aI2650
aI2651
aI2652
aI2653
aI2654
aI2655
aI2656
aI2657
aI2658
aI2659
aI2660
aI2661
aI2662
aI2663
aI2664
aI2665
aI2666
aI2667
aI2668
aI2669
aI2670
aI2671
aI2672
aI2673
aI2674
aI2675
aI2676
aI2677
aI2678
aI2679
aI2680
aI2681
aI2682
aI2683
aI2684
aI2685
aI2686
aI2687
aI2688
aI2689
aI2690
aI2691
aI2692
aI2693
aI2694
aI2695
aI2696
aI2697
aI2698
aI2699
aI2700
aI2701
aI2702
aI2703
aI2704
aI2705
aI2706
aI2707
aI2708
aI2709
aI2710
aI2711
aI2712
aI2713
aI2714
aI2715
aI2716
aI2717
aI2718
aI2719
aI2720
aI2721
aI2722
aI2723
aI2724
aI2725
aI2726
aI2727
aI2728
aI2729
aI2730
aI2731
aI2732
aI2733
aI2734
aI2735
aI2736
aI2737
aI2738
aI2739
aI2740
aI2741
aI2742
aI2743
aI2744
aI2745
aI2746
aI2747
aI2748
aI2749
aI2750
aI2751
aI2752
aI2753
aI2754
aI2755
aI2756
aI2757
aI2758
aI2759
aI2760
aI2761
aI2762
aI2763
aI2764
aI2765
aI2766
aI2767
aI2768
aI2769
aI2770
aI2771
aI2772
aI2773
aI2774
aI2775
aI2776
aI2777
aI2778
aI2779
aI2780
aI2781
aI2782
aI2783
aI2784
aI2785
aI2786
aI2787
aI2788
aI2789
aI2790
aI2791
aI2792
aI2793
aI2794
aI2795
aI2796
aI2797
aI2798
aI2799
aI2800
aI2801
aI2802
aI2803
aI2804
aI2805
aI2806
aI2807
aI2808
aI2809
aI2810
aI2811
aI2812
aI2813
aI2814
aI2815
aI2816
aI2817
aI2818
aI2819
aI2820
aI2821
aI2822
aI2823
aI2824
aI2825
aI2826
aI2827
aI2828
aI2829
aI2830
aI2831
aI2832
aI2833
aI2834
aI2835
aI2836
aI2837
aI2838
aI2839
aI2840
aI2841
aI2842
aI2843
aI2844
aI2845
aI2846
aI2847
aI2848
aI2849
aI2850
aI2851
aI2852
aI2853
aI2854
aI2855
aI2856
aI2857
aI2858
aI2859
aI2860
aI2861
aI2862
aI2863
aI2864
aI2865
aI2866
aI2867
aI2868
aI2869
aI2870
aI2871
aI2872
aI2873
aI2874
aI2875
aI2876
aI2877
aI2878
aI2879
aI2880
aI2881
aI2882
aI2883
aI2884
aI2885
aI2886
aI2887
aI2888
aI2889
aI2890
aI2891
aI2892
aI2893
aI2894
aI2895
aI2896
aI2897
aI2898
aI2899
aI2900
aI2901
aI2902
aI2903
aI2904
aI2905
aI2906
aI2907
aI2908
aI2909
aI2910
aI2911
aI2912
aI2913
aI2914
aI2915
aI2916
aI2917
aI2918
aI2919
aI2920
aI2921
aI2922
aI2923
aI2924
aI2925
aI2926
aI2927
aI2928
aI2929
aI2930
aI2931
aI2932
aI2933
aI2934
aI2935
aI2936
aI2937
aI2938
aI2939
aI2940
aI2941
aI2942
aI2943
aI2944
aI2945
aI2946
aI2947
aI2948
aI2949
aI2950
aI2951
aI2952
aI2953
aI2954
aI2955
aI2956
aI2957
aI2958
aI2959
aI2960
aI2961
aI2962
aI2963
aI2964
aI2965
aI2966
aI2967
aI2968
aI2969
aI2970
aI2971
aI2972
aI2973
aI2974
aI2975
aI2976
aI2977
aI2978
aI2979
aI2980
aI2981
aI2982
aI2983
aI2984
aI2985
aI2986
aI2987
aI2988
aI2989
aI2990
aI2991
aI2992
aI2993
aI2994
aI2995
aI2996
aI2997
aI2998
aI2999
aI3000
aI3001
aI3002
aI3003
aI3004
aI3005
aI3006
aI3007
aI3008
aI3009
aI3010
aI3011
aI3012
aI3013
aI3014
aI3015
aI3016
aI3017
aI3018
aI3019
aI3020
aI3021
aI3022
aI3023
aI3024
aI3025
aI3026
aI3027
aI3028
aI3029
aI3030
aI3031
aI3032
aI3033
aI3034
aI3035
aI3036
aI3037
aI3038
aI3039
aI3040
aI3041
aI3042
aI3043
aI3044
aI3045
aI3046
aI3047
aI3048
aI3049
aI3050
aI3051
aI3052
aI3053
aI3054
aI3055
aI3056
aI3057
aI3058
aI3059
aI3060
aI3061
aI3062
aI3063
aI3064
aI3065
aI3066
aI3067
aI3068
aI3069
aI3070
aI3071
aI3072
aI3073
aI3074
aI3075
aI3076
aI3077
aI3078
aI3079
aI3080
aI3081
aI3082
aI3083
aI3084
aI3085
aI3086
aI3087
aI3088
aI3089
aI3090
aI3091
aI3092
aI3093
aI3094
aI3095
aI3096
aI3097
aI3098
aI3099
aI3100
aI3101
aI3102
aI3103
aI3104
aI3105
aI3106
aI3107
aI3108
aI3109
aI3110
aI3111
aI3112
aI3113
aI3114
aI3115
aI3116
aI3117
aI3118
aI3119
aI3120
aI3121
aI3122
aI3123
aI3124
aI3125
aI3126
aI3127
aI3128
aI3129
aI3130
aI3131
aI3132
aI3133
aI3134
aI3135
aI3136
aI3137
aI3138
aI3139
aI3140
aI3141
aI3142
aI3143
aI3144
aI3145
aI3146
aI3147
aI3148
aI3149
aI3150
aI3151
aI3152
aI3153
aI3154
aI3155
aI3156
aI3157
aI3158
aI3159
aI3160
aI3161
aI3162
aI3163
aI3164
aI3165
aI3166
aI3167
aI3168
aI3169
aI3170
aI3171
aI3172
aI3173
aI3174
aI3175
aI3176
aI3177
aI3178
aI3179
aI3180
aI3181
aI3182
aI3183
aI3184
aI3185
aI3186
aI3187
aI3188
aI3189
aI3190
aI3191
aI3192
aI3193
aI3194
aI3195
aI3196
aI3197
aI3198
aI3199
aI3200
aI3201
aI3202
aI3203
aI3204
aI3205
aI3206
aI3207
aI3208
aI3209
aI3210
aI3211
aI3212
aI3213
aI3214
aI3215
aI3216
aI3217
aI3218
aI3219
aI3220
aI3221
aI3222
aI3223
aI3224
aI3225
aI3226
aI3227
aI3228
aI3229
aI3230
aI3231
aI3232
aI3233
aI3234
aI3235
aI3236
aI3237
aI3238
aI3239
aI3240
aI3241
aI3242
aI3243
aI3244
aI3245
aI3246
aI3247
aI3248
aI3249
aI3250
aI3251
aI3252
aI3253
aI3254
aI3255
aI3256
aI3257
aI3258
aI3259
aI3260
aI3261
aI3262
aI3263
aI3264
aI3265
aI3266
aI3267
aI3268
aI3269
aI3270
aI3271
aI3272
aI3273
aI3274
aI3275
aI3276
aI3277
aI3278
aI3279
aI3280
aI3281
aI3282
aI3283
aI3284
aI3285
aI3286
aI3287
aI3288
aI3289
aI3290
aI3291
aI3292
aI3293
aI3294
aI3295
aI3296
aI3297
aI3298
aI3299
aI3300
aI3301
aI3302
aI3303
aI3304
aI3305
aI3306
aI3307
aI3308
aI3309
aI3310
aI3311
aI3312
aI3313
aI3314
aI3315
aI3316
aI3317
aI3318
aI3319
aI3320
aI3321
aI3322
aI3323
aI3324
aI3325
aI3326
aI3327
aI3328
aI3329
aI3330
aI3331
aI3332
aI3333
aI3334
aI3335
aI3336
aI3337
aI3338
aI3339
aI3340
aI3341
aI3342
aI3343
aI3344
aI3345
aI3346
aI3347
aI3348
aI3349
aI3350
aI3351
aI3352
aI3353
aI3354
aI3355
aI3356
aI3357
aI3358
aI3359
aI3360
aI3361
aI3362
aI3363
aI3364
aI3365
aI3366
aI3367
aI3368
aI3369
aI3370
aI3371
aI3372
aI3373
aI3374
aI3375
aI3376
aI3377
aI3378
aI3379
aI3380
aI3381
aI3382
aI3383
aI3384
aI3385
aI3386
aI3387
aI3388
aI3389
aI3390
aI3391
aI3392
aI3393
aI3394
aI3395
aI3396
aI3397
aI3398
aI3399
aI3400
aI3401
aI3402
aI3403
aI3404
aI3405
aI3406
aI3407
aI3408
aI3409
aI3410
aI3411
aI3412
aI3413
aI3414
aI3415
aI3416
aI3417
aI3418
aI3419
aI3420
aI3421
aI3422
aI3423
aI3424
aI3425
aI3426
aI3427
aI3428
aI3429
aI3430
aI3431
aI3432
aI3433
aI3434
aI3435
aI3436
aI3437
aI3438
aI3439
aI3440
aI3441
aI3442
aI3443
aI3444
aI3445
aI3446
aI3447
aI3448
aI3449
aI3450
aI3451
aI3452
aI3453
aI3454
aI3455
aI3456
aI3457
aI3458
aI3459
aI3460
aI3461
aI3462
aI3463
aI3464
aI3465
aI3466
aI3467
aI3468
aI3469
aI3470
aI3471
aI3472
aI3473
aI3474
aI3475
aI3476
aI3477
aI3478
aI3479
aI3480
aI3481
aI3482
aI3483
aI3484
aI3485
aI3486
aI3487
aI3488
aI3489
aI3490
aI3491
aI3492
aI3493
aI3494
aI3495
aI3496
aI3497
aI3498
aI3499
aI3500
aI3501
aI3502
aI3503
aI3504
aI3505
aI3506
aI3507
aI3508
aI3509
aI3510
aI3511
aI3512
aI3513
aI3514
aI3515
aI3516
aI3517
aI3518
aI3519
aI3520
aI3521
aI3522
aI3523
aI3524
aI3525
aI3526
aI3527
aI3528
aI3529
aI3530
aI3531
aI3532
aI3533
aI3534
aI3535
aI3536
aI3537
aI3538
aI3539
aI3540
aI3541
aI3542
aI3543
aI3544
aI3545
aI3546
aI3547
aI3548
aI3549
aI3550
aI3551
aI3552
aI3553
aI3554
aI3555
aI3556
aI3557
aI3558
aI3559
aI3560
aI3561
aI3562
aI3563
aI3564
aI3565
aI3566
aI3567
aI3568
aI3569
aI3570
aI3571
aI3572
aI3573
aI3574
aI3575
aI3576
aI3577
aI3578
aI3579
aI3580
aI3581
aI3582
aI3583
aI3584
aI3585
aI3586
aI3587
aI3588
aI3589
aI3590
aI3591
aI3592
aI3593
aI3594
aI3595
aI3596
aI3597
aI3598
aI3599
aI3600
aI3601
aI3602
aI3603
aI3604
aI3605
aI3606
aI3607
aI3608
aI3609
aI3610
aI3611
aI3612
aI3613
aI3614
aI3615
aI3616
aI3617
aI3618
aI3619
aI3620
aI3621
aI3622
aI3623
aI3624
aI3625
aI3626
aI3627
aI3628
aI3629
aI3630
aI3631
aI3632
aI3633
aI3634
aI3635
aI3636
aI3637
aI3638
aI3639
aI3640
aI3641
aI3642
aI3643
aI3644
aI3645
aI3646
aI3647
aI3648
aI3649
aI3650
aI3651
aI3652
aI3653
aI3654
aI3655
aI3656
aI3657
aI3658
aI3659
aI3660
aI3661
aI3662
aI3663
aI3664
aI3665
aI3666
aI3667
aI3668
aI3669
aI3670
aI3671
aI3672
aI3673
aI3674
aI3675
aI3676
aI3677
aI3678
aI3679
aI3680
aI3681
aI3682
aI3683
aI3684
aI3685
aI3686
aI3687
aI3688
aI3689
aI3690
aI3691
aI3692
aI3693
aI3694
aI3695
aI3696
aI3697
aI3698
aI3699
aI3700
aI3701
aI3702
aI3703
aI3704
aI3705
aI3706
aI3707
aI3708
aI3709
aI3710
aI3711
aI3712
aI3713
aI3714
aI3715
aI3716
aI3717
aI3718
aI3719
aI3720
aI3721
aI3722
aI3723
aI3724
aI3725
aI3726
aI3727
aI3728
aI3729
aI3730
aI3731
aI3732
aI3733
aI3734
aI3735
aI3736
aI3737
aI3738
aI3739
aI3740
aI3741
aI3742
aI3743
aI3744
aI3745
aI3746
aI3747
aI3748
aI3749
aI3750
aI3751
aI3752
aI3753
aI3754
aI3755
aI3756
aI3757
aI3758
aI3759
aI3760
aI3761
aI3762
aI3763
aI3764
aI3765
aI3766
aI3767
aI3768
aI3769
aI3770
aI3771
aI3772
aI3773
aI3774
aI3775
aI3776
aI3777
aI3778
aI3779
aI3780
aI3781
aI3782
aI3783
aI3784
aI3785
aI3786
aI3787
aI3788
aI3789
aI3790
aI3791
aI3792
aI3793
aI3794
aI3795
aI3796
aI3797
aI3798
aI3799
aI3800
aI3801
aI3802
aI3803
aI3804
aI3805
aI3806
aI3807
aI3808
aI3809
aI3810
aI3811
aI3812
aI3813
aI3814
aI3815
aI3816
aI3817
aI3818
aI3819
aI3820
aI3821
aI3822
aI3823
aI3824
aI3825
aI3826
aI3827
aI3828
aI3829
aI3830
aI3831
aI3832
aI3833
aI3834
aI3835
aI3836
aI3837
aI3838
aI3839
aI3840
aI3841
aI3842
aI3843
aI3844
aI3845
aI3846
aI3847
aI3848
aI3849
aI3850
aI3851
aI3852
aI3853
aI3854
aI3855
aI3856
aI3857
aI3858
aI3859
aI3860
aI3861
aI3862
aI3863
aI3864
aI3865
aI3866
aI3867
aI3868
aI3869
aI3870
aI3871
aI3872
aI3873
aI3874
aI3875
aI3876
aI3877
aI3878
aI3879
aI3880
aI3881
aI3882
aI3883
aI3884
aI3885
aI3886
aI3887
aI3888
aI3889
aI3890
aI3891
aI3892
aI3893
aI3894
aa(lp9
F14615.23469543457
aF6677.234077453613
aF5027.134960174561
aF4938.990501403809
aF4950.037307739258
aF4533.014331817627
aF4657.258003234863
aF4181.066368103027
aF4521.481906890869
aF4384.118259429932
aF4038.4196815490723
aF4245.339324951172
aF4101.994922637939
aF3857.5789527893066
aF4114.0302658081055
aF3992.0056686401367
aF3613.679698944092
aF3500.9867401123047
aF3481.4287643432617
aF3719.8260536193848
aF3364.4100608825684
aF3330.185670852661
aF3682.6763763427734
aF3773.4845275878906
aF3569.271421432495
aF3344.5919227600098
aF3248.7169666290283
aF3263.6712913513184
aF3829.9210510253906
aF3573.800132751465
aF3302.0297679901123
aF3119.4385528564453
aF3238.3812160491943
aF3453.790084838867
aF3270.071996688843
aF3371.199348449707
aF3355.5841312408447
aF3139.9436569213867
aF3208.7141304016113
aF3245.335657119751
aF3292.9658699035645
aF3277.298433303833
aF3224.259485244751
aF3101.2854652404785
aF2990.1342964172363
aF2929.5353050231934
aF2961.838165283203
aF3009.9438705444336
aF3082.5860481262207
aF3174.2213916778564
aF3139.767957687378
aF3164.1397228240967
aF2982.6699295043945
aF2914.423713684082
aF3070.777503967285
aF2926.2435722351074
aF2905.956230163574
aF3009.201427459717
aF3033.508066177368
aF2922.9520359039307
aF2932.8730030059814
aF2906.9452362060547
aF2787.80694770813
aF2977.449640274048
aF2944.613260269165
aF2878.023874282837
aF2749.86519241333
aF2911.2677726745605
aF2834.1378231048584
aF2925.021457672119
aF2957.41157913208
aF2883.2943363189697
aF2910.0546741485596
aF2879.6531677246094
aF2781.2203369140625
aF2701.3943634033203
aF2757.838279724121
aF2798.8493156433105
aF2701.1437549591064
aF2772.6245040893555
aF2819.5466651916504
aF2779.5189723968506
aF2707.462188720703
aF2733.0176124572754
aF2674.6060886383057
aF2787.471845626831
aF2870.1450481414795
aF2946.506965637207
aF2647.388833999634
aF2740.567974090576
aF2692.331615447998
aF2685.6253299713135
aF2828.9955463409424
aF2735.906482696533
aF2705.036527633667
aF2613.387945175171
aF2592.284460067749
aF2796.510290145874
aF2591.6711254119873
aF2604.1611709594727
aF2651.8927116394043
aF2623.2903232574463
aF2630.294370651245
aF2634.6834259033203
aF2684.164674758911
aF2632.054750442505
aF2711.5183086395264
aF2583.4466133117676
aF2587.7864933013916
aF2698.7381534576416
aF2706.345115661621
aF2678.2187061309814
aF2604.127290725708
aF2674.508327484131
aF2556.3218898773193
aF2728.4792976379395
aF2583.1951751708984
aF2616.656530380249
aF2624.605962753296
aF2722.383861541748
aF2593.5084705352783
aF2554.0993423461914
aF2605.272710800171
aF2610.9623737335205
aF2576.297658920288
aF2597.959617614746
aF2611.4948120117188
aF2527.466562271118
aF2644.629243850708
aF2633.5672664642334
aF2608.116819381714
aF2548.9762649536133
aF2517.464099884033
aF2589.2486667633057
aF2585.824432373047
aF2571.299419403076
aF2604.045679092407
aF2560.8349590301514
aF2567.794593811035
aF2545.912666320801
aF2551.513870239258
aF2554.112823486328
aF2593.7204933166504
aF2681.839157104492
aF2707.154623031616
aF2597.014322280884
aF2581.0508136749268
aF2535.1061267852783
aF2564.8630981445312
aF2892.9332237243652
aF2653.2469177246094
aF2537.3123207092285
aF2533.4975967407227
aF2507.2635231018066
aF2563.4571781158447
aF2722.1326389312744
aF2513.6636180877686
aF2540.3035049438477
aF2548.566114425659
aF2532.8651237487793
aF2512.3077392578125
aF2469.3424911499023
aF2497.110954284668
aF2481.6741905212402
aF2479.544319152832
aF2486.3980255126953
aF2477.6781158447266
aF2497.5991382598877
aF2471.1130084991455
aF2592.363063812256
aF2559.42520904541
aF2475.947931289673
aF2448.241647720337
aF2418.134817123413
aF2444.105899810791
aF2460.920850753784
aF2455.2113914489746
aF2459.578821182251
aF2415.826416015625
aF2474.3220252990723
aF2495.850761413574
aF2479.3254070281982
aF2499.440664291382
aF2444.031915664673
aF2410.72314453125
aF2403.986177444458
aF2485.4994621276855
aF2406.5062732696533
aF2481.3876628875732
aF2432.3016262054443
aF2491.3785152435303
aF2495.6148719787598
aF2400.330623626709
aF2397.265111923218
aF2380.079725265503
aF2467.989850997925
aF2441.74493598938
aF2388.769203186035
aF2402.137218475342
aF2375.1826667785645
aF2399.9294509887695
aF2430.3730278015137
aF2390.4743938446045
aF2390.5982875823975
aF2437.9529457092285
aF2408.96222114563
aF2359.841989517212
aF2465.3021030426025
aF2385.817054748535
aF2422.67818069458
aF2373.231065750122
aF2358.8444385528564
aF2413.9893169403076
aF2378.050687789917
aF2403.2202014923096
aF2415.7438983917236
aF2383.7889709472656
aF2469.7040615081787
aF2360.8848304748535
aF2348.6744842529297
aF2342.009552001953
aF2409.893196105957
aF2445.8587436676025
aF2332.317445755005
aF2362.5158252716064
aF2388.463731765747
aF2401.2845211029053
aF2341.6732063293457
aF2336.734363555908
aF2314.554479598999
aF2351.217233657837
aF2404.2616481781006
aF2326.739959716797
aF2392.1705284118652
aF2320.9066276550293
aF2334.3460540771484
aF2343.760154724121
aF2365.6806564331055
aF2342.9361457824707
aF2339.0931396484375
aF2397.8804931640625
aF2361.6393852233887
aF2343.4459400177
aF2351.3079013824463
aF2326.7767391204834
aF2369.7394523620605
aF2335.1185569763184
aF2280.7500648498535
aF2340.683967590332
aF2350.3705158233643
aF2382.8944149017334
aF2344.4499015808105
aF2394.6593837738037
aF2372.1728858947754
aF2320.1485137939453
aF2361.0238075256348
aF2318.629274368286
aF2320.751983642578
aF2375.967332839966
aF2313.9356212615967
aF2351.474073410034
aF2293.0325870513916
aF2444.7998085021973
aF2355.3773918151855
aF2328.5407676696777
aF2349.1130390167236
aF2378.893491744995
aF2339.3546829223633
aF2314.3787422180176
aF2298.8335933685303
aF2292.6682510375977
aF2302.1686267852783
aF2275.9800605773926
aF2320.3880252838135
aF2309.3565216064453
aF2269.686065673828
aF2282.823043823242
aF2319.4487133026123
aF2353.129150390625
aF2362.9284706115723
aF2329.319944381714
aF2316.910285949707
aF2314.614137649536
aF2270.566493988037
aF2271.66304397583
aF2253.0681552886963
aF2309.5124111175537
aF2285.3514499664307
aF2276.3169689178467
aF2344.549020767212
aF2242.775800704956
aF2363.618839263916
aF2307.610677719116
aF2313.246593475342
aF2275.372766494751
aF2307.7038593292236
aF2302.7335243225098
aF2257.16432762146
aF2292.565046310425
aF2299.320774078369
aF2289.9444732666016
aF2278.995220184326
aF2268.4422149658203
aF2221.371877670288
aF2252.0498237609863
aF2204.5165729522705
aF2263.968179702759
aF2307.853931427002
aF2252.663110733032
aF2261.5714206695557
aF2276.8746433258057
aF2260.1811294555664
aF2204.0683040618896
aF2271.4854679107666
aF2278.932794570923
aF2280.3490772247314
aF2269.5585403442383
aF2221.730749130249
aF2279.7349128723145
aF2197.019422531128
aF2194.1611919403076
aF2286.0773067474365
aF2286.720703125
aF2197.412139892578
aF2190.9791107177734
aF2264.7022953033447
aF2264.729633331299
aF2222.4576587677
aF2260.6078701019287
aF2286.8808937072754
aF2204.007791519165
aF2188.2359771728516
aF2238.463092803955
aF2169.3042755126953
aF2197.4147548675537
aF2195.8312549591064
aF2236.1962337493896
aF2166.875192642212
aF2209.130054473877
aF2248.0902614593506
aF2237.35001373291
aF2248.790922164917
aF2241.5604095458984
aF2228.8758640289307
aF2227.4441356658936
aF2223.7450218200684
aF2199.961845397949
aF2182.48397064209
aF2201.723119735718
aF2199.875364303589
aF2304.8932514190674
aF2226.7440032958984
aF2210.649938583374
aF2215.983591079712
aF2186.3911418914795
aF2254.034538269043
aF2220.0719928741455
aF2196.228132247925
aF2201.3913803100586
aF2161.582498550415
aF2222.586519241333
aF2218.492160797119
aF2151.127872467041
aF2194.2599124908447
aF2162.2937622070312
aF2140.2620277404785
aF2134.0806636810303
aF2162.87508392334
aF2198.4572353363037
aF2199.269826889038
aF2129.327386856079
aF2194.6940174102783
aF2220.1907062530518
aF2203.627523422241
aF2156.9262981414795
aF2147.0885181427
aF2212.6938152313232
aF2144.3099937438965
aF2124.0223693847656
aF2134.596408843994
aF2204.378257751465
aF2201.0483627319336
aF2190.88791847229
aF2124.8877353668213
aF2184.504680633545
aF2153.3107261657715
aF2107.4760761260986
aF2117.086233139038
aF2184.688596725464
aF2187.018678665161
aF2117.8004474639893
aF2175.093547821045
aF2258.6858196258545
aF2257.894090652466
aF2182.9501914978027
aF2188.797176361084
aF2194.2485065460205
aF2189.532445907593
aF2178.4490699768066
aF2162.696590423584
aF2118.6662406921387
aF2178.4806118011475
aF2164.1253452301025
aF2160.8658409118652
aF2167.2478637695312
aF2103.453628540039
aF2208.277656555176
aF2110.03865814209
aF2207.109178543091
aF2165.9997692108154
aF2166.206356048584
aF2174.7259483337402
aF2138.855474472046
aF2164.3352546691895
aF2146.8901386260986
aF2143.7230167388916
aF2146.943967819214
aF2145.1805210113525
aF2148.760711669922
aF2160.1763763427734
aF2142.43416595459
aF2176.1229038238525
aF2178.891143798828
aF2157.366443634033
aF2142.370714187622
aF2136.8514137268066
aF2138.0122413635254
aF2138.5563678741455
aF2130.3127841949463
aF2152.3779525756836
aF2146.984384536743
aF2048.709300994873
aF2094.7271785736084
aF2132.3448371887207
aF2142.4677753448486
aF2039.7595958709717
aF2137.5983123779297
aF2117.1433181762695
aF2141.1737937927246
aF2079.4780979156494
aF2119.0470600128174
aF2085.2260723114014
aF2061.9361209869385
aF2056.4236221313477
aF2057.6544132232666
aF2070.4199447631836
aF2066.3993339538574
aF2047.7534084320068
aF2143.991823196411
aF2093.9076976776123
aF2024.1211338043213
aF2163.131845474243
aF2069.1422691345215
aF2063.9426612854004
aF2104.2090339660645
aF2117.032018661499
aF2083.448106765747
aF5238.045295715332
aF2121.4187202453613
aF2112.1313972473145
aF2103.77414894104
aF2092.4173278808594
aF2098.419984817505
aF2140.4375286102295
aF2109.2873210906982
aF2092.775495529175
aF2044.420597076416
aF2084.870559692383
aF2142.953903198242
aF2243.7657051086426
aF2086.8845081329346
aF2096.8264198303223
aF2012.3987922668457
aF2042.377851486206
aF2090.287099838257
aF2056.3049335479736
aF2021.974531173706
aF2098.993230819702
aF2085.2189750671387
aF2077.0790824890137
aF2087.0817546844482
aF2074.556978225708
aF2048.311008453369
aF2145.6578426361084
aF2103.2210178375244
aF1974.4401321411133
aF2074.844446182251
aF2057.1697883605957
aF2075.686532974243
aF2058.6391258239746
aF2059.981664657593
aF2033.0442924499512
aF2059.0070476531982
aF2015.1306743621826
aF2011.6278438568115
aF1979.8748378753662
aF2003.9266872406006
aF1990.3017387390137
aF1982.7547073364258
aF1970.3684635162354
aF2141.718370437622
aF2060.0485973358154
aF2055.910354614258
aF2050.8006286621094
aF2045.4445037841797
aF1950.1500701904297
aF2023.5374851226807
aF2060.312644958496
aF2049.784152984619
aF2047.9588298797607
aF2040.4065227508545
aF2047.8800506591797
aF1951.8396701812744
aF2175.119167327881
aF1987.137294769287
aF1938.458143234253
aF1965.8359832763672
aF2039.1262683868408
aF1946.0962047576904
aF1916.9896430969238
aF1945.7389030456543
aF2137.5663452148438
aF1987.460313796997
aF1982.940273284912
aF2050.6927700042725
aF1963.4789295196533
aF1912.1345863342285
aF1969.1098976135254
aF2029.3899879455566
aF2024.5134353637695
aF2019.267276763916
aF2031.885419845581
aF2022.8983726501465
aF2010.0404968261719
aF1998.6968002319336
aF1956.2738704681396
aF1998.3551063537598
aF2009.2793197631836
aF1977.4078216552734
aF1920.4214420318604
aF1953.4519348144531
aF2025.8019695281982
aF2011.9700756072998
aF2002.642427444458
aF1997.7927055358887
aF1898.065055847168
aF1889.1379127502441
aF1928.5277938842773
aF1972.6762943267822
aF2169.647294998169
aF2162.7137355804443
aF1976.9022827148438
aF1893.67183303833
aF2018.868293762207
aF2017.7169227600098
aF1970.6179752349854
aF1968.9965839385986
aF1928.7674026489258
aF1996.217779159546
aF1988.3823280334473
aF1972.7948780059814
aF1981.6627807617188
aF1977.7114086151123
aF1974.421552658081
aF1984.5445671081543
aF1898.9211692810059
aF1918.7162132263184
aF1861.4798736572266
aF1884.8900127410889
aF2006.027645111084
aF1969.9620819091797
aF1961.9580326080322
aF1961.9130325317383
aF1959.3445358276367
aF1882.178430557251
aF1865.88862991333
aF1960.7628841400146
aF1959.8920631408691
aF1986.9332637786865
aF1903.6428451538086
aF1863.725299835205
aF1918.3708171844482
aF1988.2872772216797
aF1970.1426010131836
aF1944.1815586090088
aF1904.3895149230957
aF1915.2539157867432
aF1881.9110355377197
aF1824.4114246368408
aF1829.1320991516113
aF1896.3320503234863
aF1970.7450771331787
aF1949.2722854614258
aF1855.9265441894531
aF1890.9688243865967
aF1938.8638439178467
aF1900.0966663360596
aF1832.2456607818604
aF1896.8604164123535
aF1884.1826190948486
aF1954.6143474578857
aF1884.73588180542
aF1966.7784252166748
aF1969.526704788208
aF1933.5863418579102
aF1919.549991607666
aF1924.6129760742188
aF1930.724594116211
aF1943.6440868377686
aF1801.963430404663
aF1787.6371726989746
aF1795.8896751403809
aF1787.7993469238281
aF1795.658706665039
aF1914.2424354553223
aF1915.9128646850586
aF1932.5172939300537
aF1933.9172611236572
aF1908.2607517242432
aF1922.211893081665
aF1911.2894382476807
aF1907.167465209961
aF1906.4333019256592
aF1901.6128692626953
aF1905.8238067626953
aF1900.6648502349854
aF1902.3506755828857
aF1906.755910873413
aF1910.908483505249
aF1897.2080402374268
aF1816.72354221344
aF1974.917730331421
aF1864.933578491211
aF1773.5640888214111
aF1774.0109100341797
aF1762.0805549621582
aF1830.5500106811523
aF1747.6195106506348
aF1870.3282661437988
aF1924.0669841766357
aF1771.407880783081
aF1742.7852001190186
aF1822.9637832641602
aF1851.820140838623
aF1914.800937652588
aF1882.3636417388916
aF1891.4831275939941
aF1873.815357208252
aF1798.324348449707
aF1788.4152393341064
aF1912.7665557861328
aF1887.8215351104736
aF1875.4993858337402
aF1811.187494277954
aF1885.238447189331
aF1882.6344890594482
aF1815.4431705474854
aF1972.619520187378
aF1753.5859470367432
aF1762.5146751403809
aF1892.5072708129883
aF1873.7168884277344
aF1952.336814880371
aF1738.143367767334
aF1740.9613952636719
aF1786.1019096374512
aF1756.4051628112793
aF1864.5544242858887
aF1881.3260402679443
aF1776.8585624694824
aF1857.7726345062256
aF1871.2841339111328
aF1847.8409633636475
aF1851.7346420288086
aF1854.171636581421
aF1849.836374282837
aF1869.0780143737793
aF1845.0617370605469
aF1793.9233798980713
aF1764.2207832336426
aF1727.3833541870117
aF1748.6758766174316
aF1818.3519802093506
aF1707.5747356414795
aF1736.3461208343506
aF1745.0897903442383
aF1799.2067031860352
aF1861.7459506988525
aF1865.8539428710938
aF1849.5485744476318
aF1876.8081893920898
aF1794.547170639038
aF1759.3786697387695
aF1840.4626712799072
aF1708.0517501831055
aF1865.756341934204
aF1839.156135559082
aF1779.8456954956055
aF1806.0886878967285
aF1837.4622783660889
aF1698.9729690551758
aF1752.0819034576416
aF1719.11669921875
aF1941.6450424194336
aF1707.2187423706055
aF1809.430461883545
aF1836.508716583252
aF1788.359561920166
aF1808.9535083770752
aF1775.789228439331
aF1732.4610328674316
aF1671.7204971313477
aF1696.0985889434814
aF1673.875602722168
aF1712.2305641174316
aF1683.2546138763428
aF1706.2533779144287
aF1688.7804012298584
aF1729.5948944091797
aF1845.8212299346924
aF1819.226598739624
aF1803.5919647216797
aF1807.7649402618408
aF1815.7764358520508
aF1813.0198059082031
aF1798.6689338684082
aF1778.0410995483398
aF1682.4372596740723
aF1704.7650451660156
aF1691.2407493591309
aF1786.8522491455078
aF1795.691701889038
aF1820.3916988372803
aF1726.489179611206
aF1859.9370727539062
aF1735.299648284912
aF1703.1161479949951
aF1757.6370735168457
aF1827.1225109100342
aF1692.3563079833984
aF1769.691946029663
aF1681.2454376220703
aF1675.5062685012817
aF1824.854739189148
aF1677.623785018921
aF1669.7192659378052
aF1685.1631622314453
aF1675.8013725280762
aF1720.2120399475098
aF1736.4332962036133
aF1667.9442510604858
aF1677.570873260498
aF1807.0167961120605
aF1721.5392894744873
aF1650.0316514968872
aF1660.6071186065674
aF1737.4437732696533
aF1701.1349925994873
aF1858.6758460998535
aF1777.6504077911377
aF1764.2799816131592
aF1770.0702419281006
aF1721.957513809204
aF1704.7537059783936
aF1717.8666286468506
aF1724.5772876739502
aF1781.0099601745605
aF1765.4188842773438
aF1763.842472076416
aF1762.0540046691895
aF1761.586805343628
aF1660.5659160614014
aF1662.6364841461182
aF1661.7054538726807
aF1672.093858718872
aF1785.6702919006348
aF1751.2698040008545
aF1661.9758749008179
aF1732.8243560791016
aF1776.1864585876465
aF1739.042242050171
aF1729.9122867584229
aF1761.9353885650635
aF1689.1666831970215
aF1648.7271518707275
aF1719.122778892517
aF1744.4239768981934
aF1655.2946949005127
aF1735.8075065612793
aF1729.567162513733
aF1670.8346271514893
aF1712.4391403198242
aF1733.3390197753906
aF1764.6834926605225
aF1740.4420738220215
aF1739.499563217163
aF1712.5719623565674
aF1754.5375957489014
aF1647.3325309753418
aF1742.4898443222046
aF1715.808090209961
aF1676.144380569458
aF1704.9689598083496
aF1650.9489631652832
aF1717.5920114517212
aF1675.6820583343506
aF1677.553035736084
aF1620.2067470550537
aF1666.2317390441895
aF1768.2135334014893
aF1728.6617221832275
aF1640.0454711914062
aF1708.3855419158936
aF1624.5115642547607
aF1614.360164642334
aF1681.7658004760742
aF1674.8831310272217
aF1620.3842325210571
aF1677.6668491363525
aF1644.4184913635254
aF1613.4006538391113
aF1639.6586027145386
aF1641.1488618850708
aF1688.0990104675293
aF1700.673963546753
aF1646.4244422912598
aF1623.2813568115234
aF1692.527006149292
aF1651.6461296081543
aF1758.7835578918457
aF1684.0583229064941
aF1618.5411052703857
aF1658.7280502319336
aF1616.8837566375732
aF1709.2156944274902
aF1721.7456846237183
aF1756.858232498169
aF1693.0450620651245
aF1680.9874000549316
aF1707.7524499893188
aF1654.0069646835327
aF1618.4115619659424
aF1757.8178997039795
aF1631.8786277770996
aF1632.6252365112305
aF1614.1511039733887
aF1675.049695968628
aF1700.273488998413
aF1642.8472299575806
aF1617.9033870697021
aF1632.705816268921
aF1620.502848625183
aF1641.775764465332
aF1678.9672985076904
aF1616.447364807129
aF1714.874002456665
aF1676.1855430603027
aF1703.0252866744995
aF1656.9611167907715
aF1614.2450981140137
aF1603.1668100357056
aF1636.3212814331055
aF1654.516923904419
aF1715.3865909576416
aF1629.693302154541
aF1689.8546314239502
aF1614.592357635498
aF1608.9842948913574
aF1704.9538860321045
aF1614.1072978973389
aF1702.4461822509766
aF1670.4170036315918
aF1631.3474235534668
aF1617.380883216858
aF1639.9094142913818
aF1678.2940120697021
aF1590.120798110962
aF1606.999412536621
aF1626.9892749786377
aF1611.9676361083984
aF1682.94593334198
aF1682.6941146850586
aF1673.1823844909668
aF1674.4947547912598
aF1662.8727188110352
aF1601.2069730758667
aF1667.2734651565552
aF1599.5892705917358
aF1643.6964569091797
aF1661.9390850067139
aF1632.339879989624
aF1659.5398216247559
aF2130.4916095733643
aF1830.9861278533936
aF1613.9829177856445
aF1593.7761487960815
aF1660.4993591308594
aF1635.8190841674805
aF1671.1174983978271
aF1638.7051391601562
aF1638.059482574463
aF1653.7083225250244
aF1604.2391510009766
aF1658.2161769866943
aF1591.0521183013916
aF1601.724946975708
aF1619.3494262695312
aF1651.2914924621582
aF1621.4102230072021
aF1642.9975128173828
aF1595.9876155853271
aF1580.2050857543945
aF1661.6021842956543
aF1598.743761062622
aF1589.5062084197998
aF1587.9630489349365
aF1643.9150733947754
aF1667.2976379394531
aF1658.708251953125
aF1588.9210424423218
aF1663.0220394134521
aF1579.8251285552979
aF1603.4057245254517
aF1572.8415699005127
aF1589.6668643951416
aF1674.8628196716309
aF1619.592487335205
aF1627.5208797454834
aF1650.3674221038818
aF1580.593243598938
aF1628.3417415618896
aF1649.5689086914062
aF1579.1613359451294
aF1583.0699863433838
aF1633.6202211380005
aF1568.3074378967285
aF1643.3382396697998
aF1602.931282043457
aF1578.0730543136597
aF1589.775068283081
aF1629.9483976364136
aF1581.5979862213135
aF1591.3489227294922
aF1569.9168901443481
aF1580.0412168502808
aF1636.3153772354126
aF1590.2864332199097
aF1610.51691532135
aF1595.5224571228027
aF1578.0492868423462
aF1657.962013244629
aF1579.8472862243652
aF1611.2541189193726
aF1621.9267740249634
aF1620.705804824829
aF1659.0161113739014
aF1633.0366430282593
aF1579.3381900787354
aF1610.1311893463135
aF1609.9850845336914
aF1607.7296495437622
aF1577.4635829925537
aF1655.3033142089844
aF1616.4722709655762
aF1586.633812904358
aF1613.0045852661133
aF1568.0896635055542
aF1605.565435409546
aF1575.128890991211
aF1629.0798244476318
aF1561.5937366485596
aF1606.3733501434326
aF1618.1822662353516
aF1557.1230955123901
aF1581.4938564300537
aF1602.5345830917358
aF1609.0529117584229
aF1592.1195793151855
aF1573.6424255371094
aF1665.1435089111328
aF1592.4557838439941
aF1602.4448337554932
aF1548.9615993499756
aF1646.3447647094727
aF1578.8851623535156
aF1637.6996326446533
aF1585.1172637939453
aF1585.17826461792
aF1640.2049655914307
aF1729.4984073638916
aF1544.3025598526
aF1583.6935558319092
aF1604.1319580078125
aF1589.6366920471191
aF1578.869267463684
aF1549.0816411972046
aF1624.84889793396
aF1544.875485420227
aF1612.4782848358154
aF1536.3985176086426
aF1574.9559240341187
aF1547.533920288086
aF1592.908182144165
aF1592.494465827942
aF1577.4443244934082
aF1631.7995376586914
aF1558.877815246582
aF1568.7015171051025
aF1575.2234840393066
aF1607.780014038086
aF1584.5151166915894
aF1561.6229724884033
aF1614.150899887085
aF1607.857069015503
aF1549.1345109939575
aF1593.3954124450684
aF1565.605878829956
aF1630.4514255523682
aF1553.9030723571777
aF1583.949137687683
aF1543.888412475586
aF1580.0842952728271
aF1549.6197290420532
aF1585.3718843460083
aF1603.2986211776733
aF1550.0264387130737
aF1572.614974975586
aF1550.1795120239258
aF1530.0731916427612
aF1537.4409341812134
aF1547.0312881469727
aF1553.0010395050049
aF1614.0822095870972
aF1552.566964149475
aF1622.7047719955444
aF1596.5420608520508
aF1536.984972000122
aF1593.1755046844482
aF1576.533374786377
aF1572.2114763259888
aF1583.3898286819458
aF1570.5216493606567
aF1547.346739768982
aF1640.8227834701538
aF1562.2173767089844
aF1537.2900199890137
aF1567.8572673797607
aF1565.838129043579
aF1574.3861875534058
aF1576.8620586395264
aF1573.896985054016
aF1582.3058605194092
aF1570.7656364440918
aF1562.3782711029053
aF1571.8682041168213
aF1534.699987411499
aF1545.770164489746
aF1553.4002857208252
aF1525.0699739456177
aF1561.273591041565
aF1543.5831050872803
aF1619.3116283416748
aF1539.8307933807373
aF1541.1516361236572
aF1530.3361206054688
aF1553.6311511993408
aF1550.9796915054321
aF1584.4806079864502
aF1521.213529586792
aF1561.5987768173218
aF1566.795991897583
aF1528.1298685073853
aF1542.1667890548706
aF1539.8443698883057
aF1590.2724046707153
aF1553.087594985962
aF1563.322335243225
aF1555.5581521987915
aF1529.9895811080933
aF1523.65634059906
aF1521.3762321472168
aF1549.023723602295
aF1520.7262964248657
aF1549.7855997085571
aF1514.4001178741455
aF1590.3849182128906
aF1530.7778816223145
aF1579.5329866409302
aF1524.8648691177368
aF1567.8196487426758
aF1562.6926469802856
aF1533.9773578643799
aF1557.356788635254
aF1518.7715072631836
aF1545.0275983810425
aF1543.7948484420776
aF1521.0667839050293
aF1536.3632707595825
aF1523.5974941253662
aF1538.980351448059
aF1547.2222394943237
aF1541.905673980713
aF1562.127830505371
aF1526.1703815460205
aF1525.631456375122
aF1517.775146484375
aF1525.1722354888916
aF1516.6624546051025
aF1533.6256914138794
aF1555.7140226364136
aF1527.011697769165
aF1545.686897277832
aF1519.5710229873657
aF1537.4039249420166
aF1578.0065517425537
aF1524.296778678894
aF1608.6695528030396
aF1543.0021648406982
aF1542.4729347229004
aF1517.1234159469604
aF1545.4082527160645
aF1512.3335723876953
aF1548.3014192581177
aF1555.4455938339233
aF1515.7572526931763
aF1540.8847827911377
aF1497.781270980835
aF1509.7860174179077
aF1574.3097639083862
aF1524.983549118042
aF1527.561640739441
aF1519.548436164856
aF1489.0974340438843
aF1524.0233964920044
aF1514.6283950805664
aF1491.0691719055176
aF1503.348741531372
aF1506.842887878418
aF1536.640248298645
aF1497.3202562332153
aF1538.3479623794556
aF1522.373867034912
aF1534.2099723815918
aF1515.8835973739624
aF1543.2808513641357
aF1496.8260688781738
aF1564.9339752197266
aF1528.2241115570068
aF1525.0981063842773
aF1507.4342346191406
aF1520.6113777160645
aF1514.8713779449463
aF1535.46071434021
aF1517.1611061096191
aF1502.3400058746338
aF1499.923493385315
aF1498.568775177002
aF1504.7461318969727
aF1502.9150533676147
aF1510.9579620361328
aF1539.2841844558716
aF1489.523959159851
aF1508.4870719909668
aF1478.5225868225098
aF1538.469033241272
aF1501.756781578064
aF1501.6622610092163
aF1499.2274370193481
aF1476.9129276275635
aF1520.9943437576294
aF1503.4125995635986
aF1538.6748714447021
aF1505.6393365859985
aF1515.2881355285645
aF1506.76433467865
aF1485.1282386779785
aF1497.8436918258667
aF1488.176547050476
aF1496.7202072143555
aF1480.7805452346802
aF1490.7802686691284
aF1502.3126783370972
aF1502.6263818740845
aF1476.4742269515991
aF1483.1677770614624
aF1476.7646322250366
aF1510.0104131698608
aF1466.4552774429321
aF1486.0509948730469
aF1491.21324634552
aF1482.463906288147
aF1496.971694946289
aF1507.756971359253
aF1479.071702003479
aF1457.8492259979248
aF1500.9162950515747
aF1478.4321851730347
aF1471.6657705307007
aF1479.7871017456055
aF1460.1850090026855
aF1477.859031677246
aF1479.0825462341309
aF1503.389567375183
aF1456.3449048995972
aF1464.8701248168945
aF1488.5269508361816
aF1522.267451286316
aF1481.621784210205
aF1452.393837928772
aF1485.2024631500244
aF1468.8613033294678
aF1458.892077445984
aF1461.811089515686
aF1461.874382019043
aF1454.1852655410767
aF1449.6250162124634
aF1496.5302066802979
aF1481.7011156082153
aF1450.2162132263184
aF1465.379370689392
aF1467.35413646698
aF1464.608907699585
aF1459.5252475738525
aF1445.4482460021973
aF1463.814317703247
aF1454.537311553955
aF1469.0513019561768
aF1457.2674493789673
aF1470.245132446289
aF1435.4328966140747
aF1497.9187364578247
aF1443.0277194976807
aF1462.1280765533447
aF1446.2819442749023
aF1443.0733585357666
aF1453.1442108154297
aF1455.3623294830322
aF1453.0718173980713
aF1446.6426706314087
aF1487.1724548339844
aF1456.4398345947266
aF1467.1861591339111
aF1458.6209239959717
aF1435.5554695129395
aF1439.9381799697876
aF1436.9667482376099
aF1459.7520475387573
aF1431.3842506408691
aF1457.6818494796753
aF1436.5273923873901
aF1435.9319610595703
aF1435.7350807189941
aF1446.5967502593994
aF1452.744878768921
aF1475.814814567566
aF1456.5497512817383
aF1432.208827972412
aF1415.9366388320923
aF1436.7831602096558
aF1427.927851676941
aF1405.2760467529297
aF1437.441167831421
aF1434.7208557128906
aF1427.9479484558105
aF1440.17924118042
aF1409.623013496399
aF1416.767855644226
aF1434.8733263015747
aF1422.5209655761719
aF1435.0789470672607
aF1417.5660705566406
aF1449.1682138442993
aF1427.8062324523926
aF1403.1811904907227
aF1443.6908922195435
aF1423.351580619812
aF1440.2648782730103
aF1413.5731439590454
aF1429.7653198242188
aF1416.5744647979736
aF1413.2865982055664
aF1400.8494119644165
aF1563.8251123428345
aF1392.526222229004
aF1413.8801040649414
aF1391.3103303909302
aF1439.9920177459717
aF1400.500147819519
aF1414.6837854385376
aF1400.4908113479614
aF1421.413784980774
aF1394.7953910827637
aF1396.2225513458252
aF1379.9021663665771
aF1378.3352375030518
aF1388.9581832885742
aF1396.2573900222778
aF1412.5702514648438
aF1379.3190956115723
aF1390.0539989471436
aF1388.8947229385376
aF1390.8875188827515
aF1383.031798362732
aF1369.3907499313354
aF1389.6324014663696
aF1388.8317127227783
aF1372.5672817230225
aF1386.0240688323975
aF1386.4616794586182
aF1368.7297372817993
aF1377.0762939453125
aF1359.2900943756104
aF1376.1478776931763
aF1377.1075201034546
aF1351.5024480819702
aF1346.100817680359
aF1382.421407699585
aF1355.965344429016
aF1365.535608291626
aF1365.7948427200317
aF1366.3917684555054
aF1361.3274326324463
aF1356.5718669891357
aF1367.2820825576782
aF1405.847276687622
aF1364.5023031234741
aF1334.287184715271
aF1351.711950302124
aF1368.9787158966064
aF1329.2183055877686
aF1340.8131532669067
aF1354.5543022155762
aF1353.8319969177246
aF1343.194019317627
aF1375.848973274231
aF1360.7091445922852
aF1344.474705696106
aF1392.2262172698975
aF1340.6976909637451
aF1372.414197921753
aF1325.3726434707642
aF1340.5136232376099
aF1348.1899337768555
aF1330.9885149002075
aF1336.9152927398682
aF1319.1395254135132
aF1353.0899896621704
aF1340.8461866378784
aF1323.374423980713
aF1318.4485483169556
aF1313.0290575027466
aF1315.7925882339478
aF1324.1107740402222
aF1319.7942848205566
aF1329.0891332626343
aF1317.6870555877686
aF1309.28773021698
aF1295.080472946167
aF1312.9194688796997
aF1321.7054958343506
aF1337.7873048782349
aF1307.6030473709106
aF1298.9852542877197
aF1307.2069091796875
aF1331.9669218063354
aF1303.6754913330078
aF1322.9166507720947
aF1299.8503646850586
aF1302.8387699127197
aF1291.1336679458618
aF1301.5104179382324
aF1309.5139436721802
aF1313.6169366836548
aF1288.6114330291748
aF1315.2734642028809
aF1291.3118085861206
aF1309.3250541687012
aF1292.7587385177612
aF1280.6131200790405
aF1290.26260471344
aF1275.2796535491943
aF1288.9286489486694
aF1275.1875762939453
aF1290.5133609771729
aF1286.210807800293
aF1291.4776859283447
aF1270.1873016357422
aF1290.622911453247
aF1259.596890449524
aF1279.4252920150757
aF1270.383038520813
aF1281.151785850525
aF1252.3246402740479
aF1277.8495559692383
aF1310.2565641403198
aF1262.740216255188
aF1302.7144985198975
aF1252.7155570983887
aF1276.3567457199097
aF1259.8993711471558
aF1260.4388446807861
aF1269.4215908050537
aF1252.477487564087
aF1257.598627090454
aF1226.5781154632568
aF1245.8004846572876
aF1241.8297386169434
aF1254.945945739746
aF1253.9786806106567
aF1236.689748764038
aF1233.7823972702026
aF1232.7815399169922
aF1246.5219144821167
aF1240.6825151443481
aF1279.6963510513306
aF1243.5638065338135
aF1241.9213581085205
aF1234.5752458572388
aF1259.1199979782104
aF1243.6261672973633
aF1229.8989601135254
aF1246.726905822754
aF1238.1977186203003
aF1242.060278892517
aF1240.8935356140137
aF1212.0963678359985
aF1227.5153760910034
aF1205.7092838287354
aF1209.343918800354
aF1215.6860132217407
aF1209.3235454559326
aF1195.0664710998535
aF1179.2544012069702
aF1207.4176664352417
aF1199.886155128479
aF1195.0916557312012
aF1216.37140750885
aF1214.3954362869263
aF1199.9522342681885
aF1203.775502204895
aF1193.0744743347168
aF1208.476902961731
aF1199.5680961608887
aF1197.123764038086
aF1229.1428718566895
aF1177.5828437805176
aF1205.5503387451172
aF1171.6484632492065
aF1183.002501487732
aF1191.224443435669
aF1179.312801361084
aF1166.8802127838135
aF1178.170521736145
aF1169.7172193527222
aF1184.6905307769775
aF1171.8632707595825
aF1234.1119937896729
aF1181.375696182251
aF1168.6094036102295
aF1171.0920667648315
aF1148.661150932312
aF1159.6105403900146
aF1161.5270881652832
aF1158.8516750335693
aF1167.3550634384155
aF1150.1247339248657
aF1177.4041166305542
aF1138.4723615646362
aF1169.280520439148
aF1143.0520305633545
aF1167.0460481643677
aF1160.6676750183105
aF1140.8131370544434
aF1138.369179725647
aF1161.4932851791382
aF1142.183557510376
aF1163.7874126434326
aF1125.8100137710571
aF1131.196837425232
aF1166.631296157837
aF1113.0656661987305
aF1133.0822801589966
aF1134.7534446716309
aF1136.7815341949463
aF1140.7043046951294
aF1119.257134437561
aF1139.2146072387695
aF1132.8669052124023
aF1133.539701461792
aF1143.1084966659546
aF1095.3524503707886
aF1118.7708320617676
aF1105.312289237976
aF1113.1286840438843
aF1108.8369827270508
aF1115.7093181610107
aF1111.9784355163574
aF1122.2372159957886
aF1100.9493083953857
aF1121.3140392303467
aF1108.127878189087
aF1090.2601041793823
aF1130.2282238006592
aF1113.8721313476562
aF1099.171217918396
aF1092.1255168914795
aF1097.7556314468384
aF1087.3135967254639
aF1081.249472618103
aF1083.1263408660889
aF1096.9763507843018
aF1073.4372539520264
aF1108.2602643966675
aF1091.7287530899048
aF1088.840630531311
aF1084.8434314727783
aF1060.1567039489746
aF1102.0021286010742
aF1067.1646890640259
aF1105.7306871414185
aF1076.2953786849976
aF1081.933632850647
aF1063.4957914352417
aF1065.2294654846191
aF1072.874137878418
aF1062.1636638641357
aF1065.5734481811523
aF1079.5931282043457
aF1081.3507804870605
aF1078.4377584457397
aF1056.8582239151
aF1077.7553043365479
aF1076.336495399475
aF1049.555067062378
aF1057.593297958374
aF1080.6785230636597
aF1061.3357801437378
aF1034.2446966171265
aF1043.9984760284424
aF1074.993480682373
aF1034.9157972335815
aF1066.6816387176514
aF1049.120849609375
aF1014.9091005325317
aF1048.104730606079
aF1031.4194993972778
aF1047.3136072158813
aF1033.3257656097412
aF1044.862141609192
aF1019.7891798019409
aF1044.2640085220337
aF1011.8290100097656
aF1028.9443359375
aF1038.6000699996948
aF1021.3333787918091
aF1005.9710712432861
aF1046.4128227233887
aF1026.837685585022
aF1065.2005453109741
aF1000.123607635498
aF1022.4330129623413
aF1006.9134340286255
aF1013.93625831604
aF986.964243888855
aF1019.902398109436
aF1048.0110445022583
aF983.9534502029419
aF999.4421453475952
aF1005.5938081741333
aF1004.1882553100586
aF1014.9857778549194
aF1007.0770530700684
aF1051.9053115844727
aF983.9680423736572
aF985.1689672470093
aF985.1274328231812
aF994.3745565414429
aF1005.1631498336792
aF991.7618112564087
aF999.4582710266113
aF981.5642309188843
aF976.309944152832
aF969.3362236022949
aF989.1648025512695
aF987.4876165390015
aF964.9160089492798
aF956.0021457672119
aF977.3818206787109
aF975.8220252990723
aF969.0417900085449
aF973.008490562439
aF965.2702884674072
aF964.7166385650635
aF945.7488660812378
aF977.0433855056763
aF944.5581378936768
aF962.2254753112793
aF941.3560886383057
aF968.9415016174316
aF957.1331653594971
aF964.145167350769
aF967.4446201324463
aF929.9915380477905
aF949.6097459793091
aF952.7142696380615
aF959.5710973739624
aF977.2670440673828
aF954.459192276001
aF949.4854726791382
aF946.395133972168
aF937.5953216552734
aF951.099015712738
aF936.0882186889648
aF939.3621397018433
aF928.8549556732178
aF963.3182601928711
aF924.1464910507202
aF942.2324094772339
aF936.687822341919
aF948.7048907279968
aF939.9210863113403
aF913.5445718765259
aF921.4879608154297
aF977.3740911483765
aF912.3121490478516
aF899.3551054000854
aF946.6939859390259
aF928.1039800643921
aF921.6385478973389
aF916.6761102676392
aF906.0779733657837
aF928.0298004150391
aF913.908145904541
aF951.7956962585449
aF896.2686376571655
aF908.6911420822144
aF902.8517513275146
aF888.8795585632324
aF899.8030824661255
aF923.728401184082
aF899.679714679718
aF910.8740091323853
aF913.849235534668
aF897.9021921157837
aF912.6041474342346
aF872.1657733917236
aF913.4131546020508
aF893.8926749229431
aF903.2016410827637
aF875.3249702453613
aF901.0171980857849
aF885.0172481536865
aF872.6133704185486
aF883.6657023429871
aF919.2629728317261
aF881.2434148788452
aF888.0400094985962
aF858.8260736465454
aF879.6658668518066
aF868.8063549995422
aF869.777871131897
aF908.6512899398804
aF873.2182178497314
aF875.440248966217
aF866.756733417511
aF880.1000995635986
aF862.0640621185303
aF852.2821645736694
aF886.5601034164429
aF884.0606384277344
aF850.5366020202637
aF877.7834777832031
aF853.9251880645752
aF864.9013090133667
aF892.1499872207642
aF877.5715494155884
aF849.9656119346619
aF868.0956382751465
aF834.6135897636414
aF866.4302587509155
aF858.2774415016174
aF878.95512342453
aF849.7570867538452
aF831.2324562072754
aF903.2190628051758
aF830.632860660553
aF864.8099889755249
aF846.4139084815979
aF837.6500101089478
aF826.1999654769897
aF868.9089622497559
aF859.1957235336304
aF824.5604701042175
aF851.9622960090637
aF836.4625844955444
aF849.2851910591125
aF822.389799118042
aF853.7490220069885
aF832.7832040786743
aF864.7575263977051
aF829.1091165542603
aF819.79842710495
aF879.3245539665222
aF823.8498601913452
aF813.4537296295166
aF823.4410448074341
aF836.5709290504456
aF815.038408279419
aF828.9601721763611
aF832.9939823150635
aF834.9294986724854
aF823.2031602859497
aF818.72576379776
aF808.4304175376892
aF860.5518088340759
aF823.5413250923157
aF818.165454864502
aF820.4467339515686
aF828.4092292785645
aF784.5401606559753
aF809.1749610900879
aF821.495765209198
aF787.3331184387207
aF774.6066899299622
aF803.4821529388428
aF829.6079115867615
aF807.5891575813293
aF801.765860080719
aF791.8583154678345
aF776.0112471580505
aF807.5844621658325
aF807.8047332763672
aF805.3485631942749
aF801.6211009025574
aF818.3724431991577
aF775.5683312416077
aF785.8849921226501
aF788.3051161766052
aF804.266435623169
aF774.0770220756531
aF788.2237405776978
aF807.9042086601257
aF794.7965936660767
aF773.2421026229858
aF771.1150846481323
aF769.5318446159363
aF795.339638710022
aF768.1543912887573
aF788.2368497848511
aF773.9223828315735
aF779.9346103668213
aF778.7843341827393
aF787.8047351837158
aF764.3634390830994
aF792.0209565162659
aF766.3828630447388
aF794.561089515686
aF816.8122630119324
aF778.1995482444763
aF779.2387232780457
aF787.1805558204651
aF774.9136443138123
aF814.8950414657593
aF770.2369213104248
aF765.9679069519043
aF765.6441493034363
aF762.358811378479
aF758.8051352500916
aF793.1478972434998
aF747.3605513572693
aF811.7092795372009
aF753.710367679596
aF754.7349524497986
aF762.3480224609375
aF752.1497859954834
aF761.2719049453735
aF779.8179812431335
aF783.7024688720703
aF771.9024004936218
aF743.4859824180603
aF774.5907273292542
aF741.9237914085388
aF729.0646357536316
aF744.8183312416077
aF757.3558239936829
aF749.0686612129211
aF741.093813419342
aF759.7017016410828
aF729.2860732078552
aF754.1376729011536
aF733.5296754837036
aF737.913510799408
aF743.7032470703125
aF777.7701902389526
aF754.8526473045349
aF734.8323664665222
aF739.251790523529
aF747.1137843132019
aF736.5881042480469
aF766.444655418396
aF783.2225670814514
aF733.2926716804504
aF722.4450407028198
aF755.3378367424011
aF761.475115776062
aF778.9294285774231
aF746.1843495368958
aF722.9261193275452
aF738.700466632843
aF764.9064774513245
aF733.235182762146
aF731.0240707397461
aF734.8571376800537
aF729.4925012588501
aF737.2798342704773
aF713.0412440299988
aF728.026762008667
aF724.5151600837708
aF692.7783303260803
aF700.9695200920105
aF720.0034027099609
aF729.9065380096436
aF723.1558895111084
aF741.0044527053833
aF725.6483874320984
aF693.7608213424683
aF725.8917021751404
aF708.7855491638184
aF718.8504967689514
aF720.5592956542969
aF704.9848465919495
aF716.2639307975769
aF703.9360284805298
aF698.9013047218323
aF735.4407482147217
aF734.507200717926
aF718.7011785507202
aF701.7227320671082
aF715.9496078491211
aF712.9744191169739
aF712.0916891098022
aF709.0788278579712
aF733.4946632385254
aF694.21453332901
aF774.6387419700623
aF686.6054406166077
aF722.1571612358093
aF702.4409856796265
aF715.6322145462036
aF700.4483027458191
aF707.9612441062927
aF696.8189425468445
aF697.3184127807617
aF732.5701832771301
aF695.7794742584229
aF675.9710350036621
aF709.5486512184143
aF710.694507598877
aF679.6178431510925
aF696.0150370597839
aF714.9674382209778
aF711.5085263252258
aF722.5010027885437
aF695.2366099357605
aF691.1049451828003
aF671.6710162162781
aF676.122974395752
aF680.8798127174377
aF697.6342120170593
aF682.7477278709412
aF698.6306509971619
aF692.4475030899048
aF694.4615302085876
aF664.3539853096008
aF768.2185745239258
aF671.1591258049011
aF687.0195460319519
aF660.9311165809631
aF653.0568799972534
aF691.7292156219482
aF676.4047431945801
aF689.8898344039917
aF716.9059019088745
aF683.0535311698914
aF662.7390785217285
aF688.7843441963196
aF664.9293603897095
aF678.274215221405
aF686.1623287200928
aF697.2591648101807
aF682.1537499427795
aF675.8977150917053
aF690.822564125061
aF661.1013946533203
aF664.9834113121033
aF688.2174434661865
aF678.8650813102722
aF656.5536417961121
aF671.9180045127869
aF661.3878035545349
aF649.8531770706177
aF666.3046627044678
aF663.0730214118958
aF675.3609704971313
aF647.5457029342651
aF655.0267796516418
aF663.1169891357422
aF687.4509725570679
aF668.6454482078552
aF678.0292749404907
aF657.4916024208069
aF686.395806312561
aF668.0014853477478
aF652.061689376831
aF652.7865867614746
aF673.1482601165771
aF655.5118613243103
aF662.0316834449768
aF627.6383638381958
aF642.4145512580872
aF677.0697755813599
aF642.2203960418701
aF662.1219816207886
aF647.2159743309021
aF685.9557995796204
aF647.1725606918335
aF642.9384264945984
aF644.5007286071777
aF664.0060534477234
aF657.0951681137085
aF637.3854389190674
aF664.6733503341675
aF632.9262270927429
aF633.9302382469177
aF640.2347478866577
aF661.8972907066345
aF647.0353345870972
aF654.5383939743042
aF625.8840012550354
aF671.6420464515686
aF623.9994349479675
aF664.3438835144043
aF642.7880253791809
aF655.5611362457275
aF629.2267837524414
aF628.8821797370911
aF624.1812343597412
aF625.7877235412598
aF642.0229253768921
aF638.7658500671387
aF673.4868054389954
aF661.4340014457703
aF629.7153167724609
aF616.1578874588013
aF632.2984275817871
aF651.064028263092
aF728.6175813674927
aF615.9673471450806
aF620.9788236618042
aF633.9491863250732
aF621.6375765800476
aF638.567111492157
aF624.7078685760498
aF675.7303147315979
aF648.8377065658569
aF618.313937664032
aF655.839174747467
aF626.7075500488281
aF615.28786277771
aF647.6074357032776
aF663.4814648628235
aF631.0080146789551
aF622.3824524879456
aF612.2607765197754
aF641.3773880004883
aF605.6790828704834
aF619.7996792793274
aF628.9318165779114
aF637.6266670227051
aF613.8766975402832
aF613.1023087501526
aF612.2527799606323
aF613.1238055229187
aF619.4910268783569
aF622.6977105140686
aF612.7361316680908
aF602.36496925354
aF608.6132760047913
aF617.463770866394
aF597.6505885124207
aF595.4141297340393
aF649.5658936500549
aF596.5161309242249
aF616.467912197113
aF623.3767366409302
aF622.8540382385254
aF598.9338040351868
aF622.4849877357483
aF596.2859444618225
aF602.4238529205322
aF617.3552536964417
aF591.8091897964478
aF618.2110280990601
aF619.1425170898438
aF607.7279553413391
aF624.3377623558044
aF599.6160898208618
aF591.7291922569275
aF588.9309959411621
aF605.891047000885
aF608.9385595321655
aF608.2961568832397
aF586.2031035423279
aF601.4834837913513
aF589.2051920890808
aF626.4710779190063
aF588.2527184486389
aF626.6492409706116
aF594.2352380752563
aF613.6332430839539
aF603.4280791282654
aF578.2687463760376
aF612.5260801315308
aF584.2339897155762
aF611.7147769927979
aF601.0677833557129
aF583.7111577987671
aF596.9444208145142
aF601.4606399536133
aF605.6830353736877
aF613.0454459190369
aF616.6948943138123
aF580.6661658287048
aF617.7547426223755
aF593.8993678092957
aF599.748842716217
aF613.7725601196289
aF601.7043566703796
aF588.7346844673157
aF592.7704038619995
aF590.6994953155518
aF617.3752846717834
aF565.1662058830261
aF570.6431155204773
aF630.6915783882141
aF589.3555727005005
aF615.4236297607422
aF585.935296535492
aF568.4879393577576
aF597.7207350730896
aF592.4592504501343
aF596.7917065620422
aF565.3405303955078
aF589.3108005523682
aF582.4249029159546
aF572.6771988868713
aF589.5982327461243
aF572.4543972015381
aF589.8053140640259
aF558.9730606079102
aF636.9463582038879
aF578.5207257270813
aF567.4013724327087
aF581.3122553825378
aF559.914915561676
aF583.056149482727
aF553.6144738197327
aF593.5458698272705
aF583.0059752464294
aF562.5552449226379
aF575.5617027282715
aF613.6111979484558
aF592.6316547393799
aF566.5199060440063
aF563.3685345649719
aF566.2890572547913
aF567.0072112083435
aF554.5155613422394
aF552.0463557243347
aF575.6263303756714
aF568.9144792556763
aF570.3298196792603
aF559.4772706031799
aF619.8028154373169
aF570.5582237243652
aF560.4993486404419
aF559.1039438247681
aF563.74059009552
aF552.1520178318024
aF556.3575348854065
aF570.5751991271973
aF573.3802390098572
aF546.7650094032288
aF555.2997174263
aF598.0626015663147
aF582.7727041244507
aF569.005889415741
aF552.430911064148
aF572.3130745887756
aF532.5172853469849
aF541.7028980255127
aF554.9819741249084
aF568.7146553993225
aF563.4410176277161
aF554.8467679023743
aF573.9719181060791
aF546.1517834663391
aF538.7164463996887
aF566.3437161445618
aF552.7779650688171
aF564.0550284385681
aF557.155855178833
aF576.2536244392395
aF588.2114415168762
aF548.7470850944519
aF554.1830763816833
aF565.6847429275513
aF545.4393954277039
aF539.2688355445862
aF552.1300001144409
aF556.7471127510071
aF630.0408458709717
aF554.0837063789368
aF578.558596611023
aF583.4874329566956
aF568.7796010971069
aF555.0148701667786
aF546.6588201522827
aF545.8875794410706
aF537.4089946746826
aF561.1604828834534
aF529.9178447723389
aF550.3074636459351
aF530.4663505554199
aF544.7845902442932
aF597.3598885536194
aF571.2841346263885
aF522.4939370155334
aF534.0913515090942
aF559.8267269134521
aF541.7121081352234
aF562.2662053108215
aF569.0298867225647
aF523.9068961143494
aF534.5288915634155
aF531.8314652442932
aF538.325098991394
aF530.6362118721008
aF523.2695088386536
aF521.9878034591675
aF510.8352346420288
aF557.5515613555908
aF522.6305093765259
aF542.8493895530701
aF511.3494782447815
aF529.2717061042786
aF543.7262687683105
aF561.3623719215393
aF529.9942507743835
aF517.1047368049622
aF513.7645840644836
aF554.8436622619629
aF506.6416082382202
aF536.4214081764221
aF511.57050132751465
aF541.4841313362122
aF528.8922109603882
aF526.8909387588501
aF514.3498702049255
aF524.2673087120056
aF521.457174539566
aF524.6733863353729
aF539.4859938621521
aF517.789365530014
aF536.4773778915405
aF522.9807271957397
aF503.7605137825012
aF516.4601039886475
aF531.7203817367554
aF550.1169080734253
aF506.3597183227539
aF513.3126392364502
aF494.84918689727783
aF513.4438238143921
aF520.9303183555603
aF520.1478085517883
aF516.497875213623
aF525.741295337677
aF506.54852533340454
aF501.42651867866516
aF518.4975867271423
aF498.31887674331665
aF500.21950578689575
aF548.0887494087219
aF491.4895396232605
aF541.5063233375549
aF512.0785057544708
aF533.5829977989197
aF501.24052000045776
aF491.51347064971924
aF512.0998239517212
aF503.03684663772583
aF527.2326655387878
aF493.38123655319214
aF498.73629808425903
aF517.3640990257263
aF523.3889503479004
aF489.5910758972168
aF496.40208101272583
aF498.49403715133667
aF506.2006924152374
aF496.1612310409546
aF518.6753306388855
aF497.9604814052582
aF505.13039565086365
aF529.3090462684631
aF529.6932415962219
aF495.41259598731995
aF492.4834098815918
aF503.2751088142395
aF504.570157289505
aF504.8620533943176
aF508.65660309791565
aF491.8608145713806
aF519.1075534820557
aF509.619877576828
aF493.03314995765686
aF487.9328649044037
aF491.40628147125244
aF499.6192526817322
aF486.7355065345764
aF529.6880972385406
aF513.2657761573792
aF493.1395344734192
aF493.89839363098145
aF484.33794713020325
aF486.37165451049805
aF485.09111499786377
aF503.64784479141235
aF497.19371271133423
aF515.8807940483093
aF498.49181270599365
aF495.59767055511475
aF499.5008554458618
aF494.39377880096436
aF526.3468170166016
aF478.89611434936523
aF483.59704661369324
aF511.36311435699463
aF491.1884796619415
aF496.4228882789612
aF474.54683351516724
aF487.81743717193604
aF482.3585343360901
aF486.1590700149536
aF490.41899585723877
aF490.50464034080505
aF471.344824552536
aF481.2279562950134
aF478.1127882003784
aF479.3079013824463
aF509.8173580169678
aF534.2834849357605
aF487.06846475601196
aF479.5505270957947
aF498.4665791988373
aF468.7957558631897
aF483.72253680229187
aF486.63759565353394
aF472.5433552265167
aF477.4878454208374
aF481.3986418247223
aF484.0415925979614
aF471.03182458877563
aF481.34486722946167
aF476.5930395126343
aF470.6331400871277
aF472.8485655784607
aF483.7159471511841
aF491.3802993297577
aF499.9823999404907
aF460.32048177719116
aF495.72341895103455
aF462.24975395202637
aF466.11612606048584
aF471.8812732696533
aF479.11421155929565
aF468.19894766807556
aF477.3829035758972
aF452.42089104652405
aF468.8454875946045
aF481.38810634613037
aF443.94706320762634
aF460.78591299057007
aF487.0715215206146
aF461.87396478652954
aF499.12959718704224
aF462.6708903312683
aF472.21266531944275
aF494.24922943115234
aF465.6878809928894
aF508.5681743621826
aF455.62426805496216
aF462.15892791748047
aF467.7611393928528
aF494.3151288032532
aF479.04032802581787
aF465.80050706863403
aF476.6997957229614
aF469.2905673980713
aF453.981760263443
aF461.4997136592865
aF460.42873883247375
aF461.66927552223206
aF484.60687923431396
aF462.0080156326294
aF492.9921278953552
aF475.3226418495178
aF452.59819173812866
aF472.5167496204376
aF465.0291175842285
aF449.00654888153076
aF466.51104497909546
aF437.7050344944
aF470.8443012237549
aF446.0835528373718
aF468.9087471961975
aF454.0344705581665
aF472.058340549469
aF461.22003746032715
aF452.479948759079
aF444.77277088165283
aF466.3648293018341
aF455.8849573135376
aF498.43145418167114
aF470.20028471946716
aF437.87159156799316
aF446.9002525806427
aF453.68938422203064
aF476.8180401325226
aF463.24127554893494
aF457.749636888504
aF434.68860244750977
aF464.3274824619293
aF442.18105149269104
aF451.5815315246582
aF452.7680552005768
aF463.7554919719696
aF458.8600616455078
aF445.8656973838806
aF456.249135017395
aF463.27266550064087
aF439.3111937046051
aF447.28143310546875
aF441.1067111492157
aF434.5317907333374
aF444.12320375442505
aF449.2110390663147
aF457.3497095108032
aF436.324951171875
aF447.67898178100586
aF451.18412137031555
aF476.1986286640167
aF440.80503034591675
aF429.42976784706116
aF473.53147983551025
aF465.9903540611267
aF428.5330157279968
aF438.88892459869385
aF434.33942317962646
aF460.4039328098297
aF427.814435005188
aF438.03479766845703
aF459.54015731811523
aF428.2242980003357
aF428.51047563552856
aF439.168345451355
aF456.77418518066406
aF448.3917279243469
aF426.56085085868835
aF434.44760632514954
aF417.35568475723267
aF434.52014684677124
aF465.5153875350952
aF429.3884015083313
aF418.31700801849365
aF428.4867055416107
aF436.4429910182953
aF439.7805004119873
aF418.16349935531616
aF420.12009620666504
aF445.9661395549774
aF423.4457850456238
aF422.4219260215759
aF432.3015675544739
aF448.6546540260315
aF433.2968466281891
aF451.8569312095642
aF434.5190517902374
aF430.8337962627411
aF446.55540323257446
aF414.8095910549164
aF447.75732803344727
aF449.53896498680115
aF440.87923407554626
aF451.41154384613037
aF459.7465217113495
aF417.9501440525055
aF435.5535182952881
aF434.1132206916809
aF428.8654818534851
aF419.23517775535583
aF435.8292303085327
aF444.45066571235657
aF448.57469964027405
aF425.8134853839874
aF423.93136644363403
aF395.60657596588135
aF432.11940455436707
aF419.92682456970215
aF425.6306269168854
aF409.096693277359
aF420.2533962726593
aF420.9360876083374
aF425.2706837654114
aF416.6015841960907
aF416.1982593536377
aF452.9089617729187
aF427.2879433631897
aF451.54132437705994
aF406.6557765007019
aF401.6143407821655
aF407.6538054943085
aF406.28358125686646
aF415.8718750476837
aF424.1828942298889
aF410.001428604126
aF387.2412543296814
aF415.8125398159027
aF441.0480525493622
aF412.3303644657135
aF396.5277531147003
aF404.43645215034485
aF422.7868149280548
aF410.3465795516968
aF428.6966915130615
aF435.8965792655945
aF460.5660719871521
aF411.0396704673767
aF432.0318443775177
aF404.383065700531
aF410.15902972221375
aF401.0058398246765
aF400.29891300201416
aF413.9226222038269
aF417.8018145561218
aF411.93288803100586
aF438.29457569122314
aF416.51925706863403
aF425.1836082935333
aF432.7517900466919
aF419.2422733306885
aF419.88536953926086
aF400.709924697876
aF396.8323187828064
aF418.0853924751282
aF408.6936740875244
aF392.4364695549011
aF413.3996694087982
aF412.24618673324585
aF434.5625832080841
aF401.843626499176
aF406.24325370788574
aF433.01644134521484
aF397.635888338089
aF393.4739532470703
aF418.87403440475464
aF384.34455704689026
aF407.2641384601593
aF413.1984374523163
aF389.3879668712616
aF390.7635443210602
aF401.66197967529297
aF418.34220123291016
aF387.71000242233276
aF408.18269991874695
aF417.0114018917084
aF394.86938858032227
aF399.9832320213318
aF388.22540616989136
aF381.67997193336487
aF390.08618998527527
aF407.0093595981598
aF409.33979320526123
aF421.2274823188782
aF396.2060170173645
aF397.25295329093933
aF382.4865527153015
aF401.37062883377075
aF398.66490745544434
aF401.052503824234
aF413.2945499420166
aF388.10393619537354
aF397.03779435157776
aF401.5285165309906
aF410.2682864665985
aF422.331246137619
aF416.17283368110657
aF398.79268527030945
aF359.1113758087158
aF394.0491621494293
aF391.15765929222107
aF419.3088791370392
aF398.8099822998047
aF396.666716337204
aF409.2267291545868
aF404.6524317264557
aF378.25522089004517
aF398.2218129634857
aF399.2431139945984
aF392.2894170284271
aF409.9998388290405
aF381.7037675380707
aF389.2774338722229
aF380.63121604919434
aF390.2721698284149
aF407.6248736381531
aF387.34118270874023
aF377.1781795024872
aF386.17614221572876
aF376.7179718017578
aF399.865106344223
aF397.54526567459106
aF379.87682342529297
aF410.799028635025
aF378.04353642463684
aF381.47140073776245
aF392.96512031555176
aF371.25231432914734
aF400.11513590812683
aF376.2871267795563
aF382.5546073913574
aF395.9098198413849
aF398.99474024772644
aF361.26229333877563
aF385.6597697734833
aF368.97338461875916
aF397.43959379196167
aF366.4561722278595
aF383.129771232605
aF404.3457622528076
aF379.1232144832611
aF376.2733552455902
aF377.386239528656
aF381.1014654636383
aF366.981810092926
aF426.53861474990845
aF381.6381769180298
aF413.361953496933
aF362.23390007019043
aF371.1980369091034
aF389.54661655426025
aF364.88030219078064
aF367.2692906856537
aF365.671391248703
aF386.82079696655273
aF371.17106223106384
aF380.99694085121155
aF428.08369278907776
aF379.95454239845276
aF387.7745027542114
aF372.9021861553192
aF373.21975803375244
aF365.9830811023712
aF377.9899072647095
aF364.7059681415558
aF372.3979375362396
aF367.3811173439026
aF362.7201051712036
aF359.9000897407532
aF378.73351073265076
aF381.1019868850708
aF394.6994376182556
aF363.67405557632446
aF377.3711404800415
aF378.33761286735535
aF371.15112233161926
aF358.7591435909271
aF364.999454498291
aF359.346657037735
aF383.0968294143677
aF375.68985962867737
aF369.89278745651245
aF370.17648339271545
aF375.7748727798462
aF366.67020416259766
aF404.8495318889618
aF367.6199839115143
aF360.09812331199646
aF349.2037715911865
aF359.8173043727875
aF346.8322603702545
aF392.097305059433
aF379.79580450057983
aF363.21795415878296
aF382.6977746486664
aF373.3898546695709
aF371.35930943489075
aF361.4586203098297
aF358.62931752204895
aF377.58097410202026
aF360.92916536331177
aF368.5115580558777
aF350.5426754951477
aF392.9962959289551
aF369.02211141586304
aF383.8176999092102
aF372.3656368255615
aF378.0411305427551
aF356.12791872024536
aF401.76032304763794
aF389.76746821403503
aF363.36280131340027
aF369.4165382385254
aF355.1150236129761
aF363.0737159252167
aF356.0457389354706
aF362.8662693500519
aF373.17931294441223
aF346.4794247150421
aF372.97244095802307
aF355.72748851776123
aF398.5427737236023
aF354.436635017395
aF369.5312156677246
aF358.97270488739014
aF362.83651304244995
aF360.25129747390747
aF361.6412842273712
aF361.21172404289246
aF355.90762519836426
aF348.3388571739197
aF366.12325167655945
aF344.09551095962524
aF359.2687599658966
aF374.0570385456085
aF350.8611869812012
aF339.6733968257904
aF373.09806275367737
aF358.69548892974854
aF347.67406392097473
aF342.8829393386841
aF369.51971888542175
aF360.3265538215637
aF373.47281551361084
aF341.5902042388916
aF360.2954304218292
aF358.42838191986084
aF378.054771900177
aF347.295508146286
aF350.3638310432434
aF329.31187558174133
aF361.47179341316223
aF343.03820300102234
aF343.33769607543945
aF359.2292265892029
aF339.64959263801575
aF340.43224334716797
aF350.826388835907
aF362.29522013664246
aF359.9897313117981
aF338.97782945632935
aF346.50961470603943
aF345.8814399242401
aF337.0290949344635
aF360.42864966392517
aF364.19248628616333
aF328.88743233680725
aF355.9043209552765
aF362.24322414398193
aF348.70456981658936
aF345.980295419693
aF344.4863884449005
aF357.7601709365845
aF343.5136613845825
aF337.1455638408661
aF374.4916696548462
aF349.4284040927887
aF342.2563600540161
aF374.236088514328
aF352.91741251945496
aF331.1382887363434
aF335.80722773075104
aF351.51863741874695
aF381.7530038356781
aF336.09324979782104
aF332.2513599395752
aF355.71204376220703
aF348.23569536209106
aF352.6037428379059
aF334.1462380886078
aF348.19741010665894
aF328.86911368370056
aF340.5707497596741
aF335.4217174053192
aF360.68004608154297
aF333.07512044906616
aF333.7675049304962
aF342.1997084617615
aF329.296249628067
aF348.8561906814575
aF323.5307433605194
aF335.1162462234497
aF328.97244691848755
aF342.6538248062134
aF336.3385224342346
aF353.3739960193634
aF348.5708336830139
aF324.8306863307953
aF349.11624217033386
aF358.2250952720642
aF336.70473170280457
aF331.04098534584045
aF334.1291241645813
aF337.7349615097046
aF356.2226037979126
aF321.20814514160156
aF328.80396699905396
aF342.76608538627625
aF323.81284952163696
aF337.7439525127411
aF369.53421425819397
aF335.3418667316437
aF328.3781855106354
aF351.06427812576294
aF351.02669191360474
aF312.7125358581543
aF339.88500475883484
aF338.99293088912964
aF359.10518622398376
aF327.48837780952454
aF339.1261899471283
aF335.89526176452637
aF338.065646648407
aF336.17973279953003
aF325.8311598300934
aF317.20911478996277
aF328.9703903198242
aF321.0183298587799
aF341.87008571624756
aF334.0852150917053
aF341.3886299133301
aF318.8325378894806
aF338.9669871330261
aF324.841609954834
aF317.2617349624634
aF332.7820665836334
aF339.2584779262543
aF315.165424823761
aF318.7946455478668
aF361.1023643016815
aF337.93628668785095
aF321.06524634361267
aF326.6553328037262
aF333.28404450416565
aF331.1909909248352
aF341.81577348709106
aF340.7146348953247
aF322.4423906803131
aF322.2845661640167
aF320.30128502845764
aF315.2969014644623
aF337.8828618526459
aF327.0530517101288
aF332.0335829257965
aF333.9776840209961
aF333.3143265247345
aF321.3236927986145
aF338.41636180877686
aF327.49874663352966
aF359.2543535232544
aF314.91201639175415
aF329.66046595573425
aF330.79219150543213
aF326.1001811027527
aF325.6602246761322
aF328.10680866241455
aF319.33996415138245
aF331.728887796402
aF332.2172634601593
aF322.6512086391449
aF310.32804024219513
aF328.6955192089081
aF317.9492950439453
aF322.03781270980835
aF311.6187505722046
aF322.7598490715027
aF324.63437366485596
aF323.7159368991852
aF326.30559182167053
aF323.2861363887787
aF345.15681767463684
aF318.9309227466583
aF314.5561258792877
aF327.1115918159485
aF328.20100688934326
aF315.54481744766235
aF318.64717864990234
aF328.97384452819824
aF321.72948932647705
aF322.6349232196808
aF310.52059388160706
aF338.2656235694885
aF304.97193908691406
aF297.34833455085754
aF320.29200756549835
aF316.06943440437317
aF336.1181859970093
aF320.3530237674713
aF307.11632895469666
aF318.46373176574707
aF316.6346740722656
aF318.80418848991394
aF313.42002606391907
aF300.64451146125793
aF312.4488055706024
aF316.06851029396057
aF314.05163741111755
aF315.7462430000305
aF320.00646138191223
aF337.3309676647186
aF308.30213713645935
aF316.9547085762024
aF331.1792039871216
aF308.6896848678589
aF299.0145335197449
aF313.7181158065796
aF311.39514350891113
aF320.7084105014801
aF300.8497643470764
aF319.70513820648193
aF304.75763964653015
aF314.6279945373535
aF316.2592862844467
aF287.29156827926636
aF311.3435184955597
aF310.97610330581665
aF305.18295884132385
aF319.1010503768921
aF316.8857111930847
aF298.6594362258911
aF315.2542943954468
aF306.96643257141113
aF319.9606363773346
aF303.5424312353134
aF301.29194140434265
aF298.6128017902374
aF308.63917565345764
aF324.6835355758667
aF316.21848917007446
aF295.1925537586212
aF296.4578654766083
aF315.31504559516907
aF327.3918306827545
aF300.07373571395874
aF330.34358978271484
aF314.7700500488281
aF318.157737493515
aF312.0422418117523
aF276.3635604381561
aF324.50647735595703
aF296.27463376522064
aF318.334529876709
aF301.77734446525574
aF314.80146646499634
aF296.9668073654175
aF320.53980135917664
aF326.8320758342743
aF296.1030857563019
aF324.6934816837311
aF303.6621856689453
aF295.2306077480316
aF312.1561110019684
aF322.22797751426697
aF310.5025689601898
aF301.8602252006531
aF336.7070655822754
aF310.02073407173157
aF299.73736095428467
aF287.358500957489
aF315.06864500045776
aF300.0528678894043
aF314.00952315330505
aF301.4124987125397
aF279.36957478523254
aF305.157413482666
aF325.43112087249756
aF305.3708908557892
aF307.4939594268799
aF306.9222140312195
aF289.8874320983887
aF301.66172099113464
aF290.1538429260254
aF308.0397918224335
aF298.76647877693176
aF298.1456642150879
aF304.98401951789856
aF295.0866451263428
aF328.92783772945404
aF317.8628103733063
aF303.919646024704
aF308.7127728462219
aF313.0364215373993
aF291.8150885105133
aF316.32862520217896
aF294.13298654556274
aF298.6892554759979
aF320.1008925437927
aF319.03950023651123
aF316.24465894699097
aF293.31756377220154
aF318.7827250957489
aF292.91100001335144
aF298.6295142173767
aF288.84829926490784
aF294.2595286369324
aF303.7483243942261
aF286.3538739681244
aF302.9183461666107
aF284.1146981716156
aF297.0441689491272
aF295.0373885631561
aF282.1701455116272
aF325.9181869029999
aF305.29747009277344
aF280.93731904029846
aF321.2164521217346
aF314.1358585357666
aF296.2107136249542
aF303.6376037597656
aF288.36178028583527
aF288.0448155403137
aF303.2507514953613
aF279.56666254997253
aF299.2868459224701
aF301.7414593696594
aF312.31681084632874
aF280.9967859983444
aF301.2567231655121
aF306.102338552475
aF297.6164927482605
aF294.68904519081116
aF296.69704413414
aF275.5321190357208
aF284.13768124580383
aF302.584823846817
aF287.46331787109375
aF282.35725378990173
aF281.57538998126984
aF314.91231083869934
aF304.1427493095398
aF277.1281707286835
aF287.54647970199585
aF321.5643391609192
aF285.76021003723145
aF282.41770339012146
aF299.6339285373688
aF281.02396273612976
aF293.4976086616516
aF283.4035425186157
aF286.62559247016907
aF274.81466245651245
aF288.3201832771301
aF288.16213822364807
aF302.76245307922363
aF282.39333975315094
aF279.04468309879303
aF291.01187205314636
aF285.53287744522095
aF278.5733768939972
aF287.6167006492615
aF286.8844087123871
aF291.4143877029419
aF283.7619835138321
aF293.4423403739929
aF329.4189910888672
aF288.568009018898
aF281.3203468322754
aF274.0820348262787
aF308.69939613342285
aF282.9382425546646
aF272.83821272850037
aF309.12250423431396
aF265.06258487701416
aF293.96503925323486
aF287.44406485557556
aF280.1764540672302
aF288.7963192462921
aF272.07629549503326
aF271.363711476326
aF277.16922998428345
aF311.9162178039551
aF274.2947586774826
aF279.42330038547516
aF314.2328519821167
aF287.3989222049713
aF267.31873965263367
aF290.09194135665894
aF285.74468970298767
aF318.03820633888245
aF279.32902693748474
aF276.7265250682831
aF284.8994109630585
aF276.54885363578796
aF283.90689718723297
aF281.9198143482208
aF264.64390683174133
aF289.45220613479614
aF269.10103583335876
aF266.80258870124817
aF278.5820609331131
aF287.3054893016815
aF290.85763692855835
aF274.0123200416565
aF273.56917333602905
aF302.7315454483032
aF273.13281297683716
aF279.2157756090164
aF276.28073740005493
aF277.7951840162277
aF282.2391406297684
aF277.8821084499359
aF265.441446185112
aF272.6864813566208
aF291.3339709043503
aF291.5809623003006
aF266.92843985557556
aF316.1506464481354
aF291.78354835510254
aF269.91610836982727
aF306.71386182308197
aF280.9458075761795
aF266.1610680818558
aF271.5117748975754
aF263.6453481912613
aF271.5069622993469
aF279.9416615962982
aF274.2558858394623
aF286.72193336486816
aF273.78847217559814
aF275.6546462774277
aF272.9701347351074
aF260.257416844368
aF265.13781452178955
aF271.12910199165344
aF285.75361371040344
aF293.03667163848877
aF259.16319036483765
aF287.1623898744583
aF264.3358008861542
aF265.5762791633606
aF293.69872093200684
aF293.83726739883423
aF270.6684411764145
aF295.9711637496948
aF283.1329460144043
aF266.89955711364746
aF263.57719480991364
aF294.14953207969666
aF276.429780960083
aF267.3841655254364
aF284.5175596475601
aF272.5505123138428
aF266.38487470149994
aF265.08106303215027
aF261.2536779642105
aF270.62018513679504
aF270.0880825519562
aF281.74289560317993
aF270.8508839607239
aF267.06624937057495
aF297.00897312164307
aF264.2613979578018
aF280.6205595731735
aF278.51264357566833
aF271.6359657049179
aF281.1342078447342
aF278.4919455051422
aF266.33609664440155
aF280.05942392349243
aF268.8099989891052
aF255.20406830310822
aF281.7689527273178
aF278.9330567121506
aF282.70494973659515
aF262.8683979511261
aF272.13107347488403
aF276.2136662006378
aF266.01353120803833
aF261.1407587528229
aF273.03057861328125
aF262.06501293182373
aF271.7794349193573
aF258.40847539901733
aF269.5936391353607
aF278.90931463241577
aF271.1503231525421
aF296.4878098964691
aF273.51558351516724
aF268.70986700057983
aF279.6337630748749
aF260.41071462631226
aF262.00545167922974
aF273.0619571208954
aF261.84693825244904
aF254.52298259735107
aF268.6939260959625
aF263.8678481578827
aF271.84322023391724
aF255.23714780807495
aF266.47712326049805
aF274.4855124950409
aF286.4384956359863
aF284.95649099349976
aF277.50311613082886
aF263.52978682518005
aF256.17469096183777
aF278.724417924881
aF254.5487961769104
aF253.0982325077057
aF256.2126626968384
aF255.05070054531097
aF278.94024753570557
aF257.7135759592056
aF261.5089373588562
aF271.89819145202637
aF255.81598818302155
aF266.87559044361115
aF280.0677924156189
aF262.5402994155884
aF265.2123740911484
aF259.68906581401825
aF271.53712117671967
aF268.8937922716141
aF256.89899921417236
aF267.51380920410156
aF270.1973955631256
aF256.98297476768494
aF268.1920258998871
aF265.8837376832962
aF269.9642540216446
aF248.62676060199738
aF253.3147988319397
aF261.2047436237335
aF262.8418905735016
aF287.6815707683563
aF261.5465210676193
aF268.7761341333389
aF245.90835547447205
aF253.7686321735382
aF281.8605406284332
aF263.4629749059677
aF268.99680948257446
aF256.89789366722107
aF267.580931186676
aF247.59643137454987
aF264.01117968559265
aF253.05836749076843
aF257.9596132040024
aF250.88264274597168
aF283.7238997220993
aF270.35650300979614
aF271.7268269062042
aF255.3394924402237
aF251.27422404289246
aF273.35863065719604
aF259.5848777294159
aF265.3563703298569
aF253.44273555278778
aF252.7323455810547
aF262.64493680000305
aF262.95306873321533
aF252.99169039726257
aF241.9312195777893
aF284.8162844181061
aF240.38012266159058
aF254.34368813037872
aF244.94197845458984
aF256.568124294281
aF258.5524790287018
aF265.0472239255905
aF254.91860961914062
aF281.381476521492
aF256.89606416225433
aF269.4063560962677
aF251.73624324798584
aF247.83718836307526
aF247.42970776557922
aF264.92412054538727
aF266.9291820526123
aF266.57597851753235
aF264.67347824573517
aF250.63354170322418
aF255.88267767429352
aF257.5990743637085
aF246.6088571548462
aF252.56522607803345
aF239.45282316207886
aF268.7338924407959
aF254.24654972553253
aF270.6054834127426
aF275.2071723937988
aF265.8243410587311
aF250.56184935569763
aF248.2979555130005
aF267.98613142967224
aF248.53654372692108
aF264.23860490322113
aF261.2307161092758
aF259.1058646440506
aF248.2207409143448
aF246.93201398849487
aF269.72771406173706
aF248.66254150867462
aF242.53640592098236
aF262.5624477863312
aF269.76930379867554
aF249.7170022726059
aF250.84773302078247
aF253.53465592861176
aF246.2017446756363
aF256.5000615119934
aF252.17057299613953
aF245.19787442684174
aF245.02519142627716
aF258.3886957168579
aF252.99390518665314
aF250.22384703159332
aF241.65609753131866
aF244.56941318511963
aF252.4411243200302
aF244.49800789356232
aF245.9483219385147
aF272.88620483875275
aF261.04776072502136
aF245.03297221660614
aF236.7322746515274
aF250.04552352428436
aF258.5698307752609
aF253.0730435848236
aF244.45959949493408
aF254.53608655929565
aF242.6388669013977
aF248.2917150259018
aF245.0980520248413
aF245.08690536022186
aF260.81077349185944
aF266.6666896343231
aF234.63215696811676
aF244.86345994472504
aF239.05174458026886
aF251.3839212656021
aF245.44172155857086
aF235.261012673378
aF253.46398890018463
aF247.4951649904251
aF238.30623042583466
aF252.1716341972351
aF269.54728531837463
aF249.5188628435135
aF241.26104927062988
aF241.39866769313812
aF243.7919121980667
aF254.18934440612793
aF248.49447286128998
aF279.63308215141296
aF252.45758950710297
aF259.69308972358704
aF242.27516555786133
aF251.8135576248169
aF239.69898974895477
aF272.2609827518463
aF239.02390730381012
aF259.81655836105347
aF233.16184306144714
aF255.24936175346375
aF246.9418774843216
aF257.48230040073395
aF233.0869199037552
aF250.8340893983841
aF259.6735860109329
aF251.6670023202896
aF251.45914483070374
aF246.42885553836823
aF256.32164990901947
aF257.6608406305313
aF255.0091700553894
aF236.15282356739044
aF250.76955723762512
aF247.7266012430191
aF246.63916182518005
aF248.58228170871735
aF240.6278384923935
aF268.4747335910797
aF240.38437688350677
aF244.11492371559143
aF245.77321255207062
aF242.29304099082947
aF233.29668474197388
aF248.69916486740112
aF243.06099593639374
aF243.6265548467636
aF251.1582487821579
aF263.2526830434799
aF257.48870062828064
aF250.35563504695892
aF234.9784084558487
aF236.27565014362335
aF236.9473775625229
aF232.77950143814087
aF234.36599326133728
aF244.5752648115158
aF245.20977008342743
aF240.1890149116516
aF232.71245419979095
aF233.50311398506165
aF244.92511916160583
aF231.54759216308594
aF252.390012383461
aF226.16337859630585
aF236.0973697900772
aF244.88958156108856
aF257.4744668006897
aF240.29433178901672
aF254.69417119026184
aF228.70241045951843
aF242.74070990085602
aF247.7242270708084
aF238.36997723579407
aF249.4120911359787
aF233.16940546035767
aF235.49543941020966
aF239.65840208530426
aF243.91542291641235
aF231.5838907957077
aF235.42472577095032
aF239.80159330368042
aF250.92587661743164
aF236.275381565094
aF246.30914270877838
aF242.69027173519135
aF245.3376443386078
aF251.73187136650085
aF237.10980927944183
aF253.60810327529907
aF244.5702588558197
aF247.75573992729187
aF246.76517057418823
aF240.28399991989136
aF220.20343554019928
aF242.78882265090942
aF244.28371262550354
aF245.0430235862732
aF237.68322610855103
aF255.28313624858856
aF243.3247023820877
aF237.34009778499603
aF244.21803522109985
aF238.50708091259003
aF250.11588191986084
aF219.70021831989288
aF253.26594519615173
aF237.47628581523895
aF238.8144338130951
aF230.49269878864288
aF222.03062069416046
aF227.8111708164215
aF229.8349827528
aF228.801083445549
aF234.1843192577362
aF234.1935464143753
aF242.41044282913208
aF238.0064241886139
aF228.63972866535187
aF223.51063477993011
aF235.12538838386536
aF234.66810142993927
aF237.05664587020874
aF246.2442899942398
aF238.91604363918304
aF230.45521128177643
aF242.31233978271484
aF235.68877387046814
aF238.03789055347443
aF235.24024879932404
aF231.74939835071564
aF252.5508589744568
aF240.09469890594482
aF232.87055909633636
aF231.08824563026428
aF236.4497528076172
aF246.0677011013031
aF245.51970660686493
aF253.4719204902649
aF221.71395862102509
aF236.22668588161469
aF221.4318984746933
aF228.37940096855164
aF235.692134141922
aF230.1168087720871
aF236.3937097787857
aF220.60908949375153
aF240.34800457954407
aF225.4119737148285
aF236.0705531835556
aF235.73251819610596
aF223.48307812213898
aF253.30253422260284
aF243.80817461013794
aF216.33245360851288
aF246.63681030273438
aF237.26235115528107
aF220.58431100845337
aF223.74064648151398
aF230.69766175746918
aF230.2116448879242
aF224.93825387954712
aF256.3172323703766
aF247.9445389509201
aF229.1504464149475
aF235.57386553287506
aF228.20077288150787
aF237.57646656036377
aF234.72336494922638
aF252.87748515605927
aF220.95760440826416
aF217.15133905410767
aF237.45929992198944
aF227.71312308311462
aF238.33268702030182
aF224.9441238641739
aF233.95017993450165
aF233.9408198595047
aF246.20202589035034
aF230.75826704502106
aF250.54401397705078
aF253.4200115799904
aF238.04600250720978
aF223.5454089641571
aF227.70611226558685
aF215.61818957328796
aF234.84561204910278
aF234.67925643920898
aF229.5104569196701
aF249.05729579925537
aF252.69056642055511
aF217.10495626926422
aF224.91252732276917
aF232.29862308502197
aF252.92317986488342
aF226.04946219921112
aF233.96542727947235
aF239.81849825382233
aF212.81824016571045
aF226.08738732337952
aF229.6922402381897
aF221.63361155986786
aF234.58195340633392
aF222.05427062511444
aF222.03207993507385
aF227.77384746074677
aF229.6815584897995
aF234.47686195373535
aF228.81721878051758
aF226.75138437747955
aF237.21585166454315
aF246.40657150745392
aF220.06113731861115
aF231.7498996257782
aF216.23864209651947
aF218.71947419643402
aF230.2393604516983
aF238.63917469978333
aF239.3387702703476
aF218.5021412372589
aF221.45160496234894
aF230.5682669878006
aF225.28515326976776
aF224.70842969417572
aF227.09246265888214
aF228.75185227394104
aF218.50697946548462
aF250.8309199810028
aF224.8215708732605
aF216.92898619174957
aF218.22653424739838
aF224.8838564157486
aF220.36155319213867
aF230.05755579471588
aF238.8492934703827
aF228.32826268672943
aF215.04770696163177
aF218.65616607666016
aF225.3599944114685
aF212.86337876319885
aF237.88055884838104
aF225.577042222023
aF216.01672792434692
aF232.63970363140106
aF232.25888788700104
aF210.3831181526184
aF229.32480430603027
aF222.40809500217438
aF217.63777041435242
aF218.59247636795044
aF234.22682654857635
aF245.01066303253174
aF231.46464276313782
aF214.38568949699402
aF212.51895022392273
aF211.15398752689362
aF215.39143133163452
aF221.96889221668243
aF217.96629095077515
aF225.48784792423248
aF224.3684357404709
aF233.12005865573883
aF214.20574128627777
aF210.9610254764557
aF222.26139974594116
aF230.16473400592804
aF207.85656225681305
aF227.33703815937042
aF223.31146430969238
aF223.071186542511
aF211.67579996585846
aF221.9894186258316
aF217.26877200603485
aF234.17850279808044
aF236.25578272342682
aF220.04676985740662
aF237.39711713790894
aF221.57643842697144
aF218.3974565267563
aF223.7748601436615
aF221.51048719882965
aF221.8326416015625
aF221.48146259784698
aF219.10501110553741
aF216.1405199766159
aF209.81882166862488
aF224.57191860675812
aF212.3729349374771
aF247.5284470319748
aF219.5123610496521
aF210.73130190372467
aF219.06809103488922
aF225.35528802871704
aF224.68628311157227
aF235.65493941307068
aF223.5180822610855
aF204.73355519771576
aF215.11062121391296
aF214.65104186534882
aF218.88004207611084
aF245.16140389442444
aF234.66717755794525
aF228.96264898777008
aF239.88606941699982
aF207.33989036083221
aF225.71121490001678
aF234.65653264522552
aF219.53984034061432
aF224.71415746212006
aF223.47481405735016
aF219.62834227085114
aF211.64377069473267
aF231.46008694171906
aF210.3421026468277
aF220.47572648525238
aF222.79595863819122
aF219.13440811634064
aF223.22688150405884
aF220.76250863075256
aF217.13412284851074
aF228.84113788604736
aF219.17243421077728
aF223.551234126091
aF220.3722277879715
aF221.85436010360718
aF217.6266633272171
aF218.2748762369156
aF213.48357093334198
aF216.1121847629547
aF216.46607959270477
aF216.7766728401184
aF211.6150188446045
aF213.85946798324585
aF219.4300011396408
aF225.89432382583618
aF212.28235507011414
aF224.94862496852875
aF215.32003223896027
aF211.18907523155212
aF206.95640742778778
aF215.0184029340744
aF212.4197198152542
aF221.8709236383438
aF224.2053563594818
aF211.38780117034912
aF222.65810132026672
aF222.07272970676422
aF211.9719101190567
aF229.39400041103363
aF204.8177102804184
aF202.01492583751678
aF211.671373128891
aF217.057288646698
aF212.48436737060547
aF216.48401927947998
aF204.3570135831833
aF212.59572279453278
aF235.41897821426392
aF206.26976454257965
aF225.88419270515442
aF215.35605549812317
aF232.32396352291107
aF214.71610522270203
aF228.9243210554123
aF213.78927624225616
aF211.37390995025635
aF224.03051042556763
aF222.14321672916412
aF218.0230988264084
aF214.7078402042389
aF225.93244457244873
aF232.81919133663177
aF197.41736090183258
aF207.25844967365265
aF213.8185614347458
aF216.56790935993195
aF211.11849308013916
aF218.7890614271164
aF218.41900181770325
aF214.54533874988556
aF226.135404586792
aF219.79037475585938
aF215.05622589588165
aF228.72477161884308
aF225.6534547805786
aF210.07039141654968
aF208.04488134384155
aF214.7137942314148
aF209.19727671146393
aF213.42952632904053
aF224.7873705625534
aF215.54487228393555
aF209.40861105918884
aF213.10029566287994
aF215.15788328647614
aF212.32971811294556
aF200.73550879955292
aF208.14895868301392
aF196.44964694976807
aF202.6882300376892
aF208.19147145748138
aF211.69384801387787
aF212.16538178920746
aF207.1182770729065
aF209.5733152627945
aF207.1216742992401
aF209.01844680309296
aF208.53874492645264
aF225.51908612251282
aF205.90783214569092
aF214.46804237365723
aF207.0428388118744
aF212.92876827716827
aF218.49400889873505
aF206.79155814647675
aF218.4920026063919
aF209.06335258483887
aF210.07467472553253
aF217.8322675228119
aF204.3169549703598
aF222.1267557144165
aF210.1194280385971
aF213.4693055152893
aF208.8531853556633
aF206.51596224308014
aF222.05833172798157
aF206.10911083221436
aF207.07467234134674
aF203.10092270374298
aF208.2778548002243
aF205.58389711380005
aF228.44703006744385
aF203.3923680782318
aF214.5488476753235
aF197.55044531822205
aF224.67203330993652
aF210.64623057842255
aF221.98293805122375
aF217.95640993118286
aF204.93212342262268
aF196.6024947166443
aF207.14517414569855
aF229.96338760852814
aF207.96398794651031
aF217.51022124290466
aF214.3433222770691
aF215.44766080379486
aF216.83816289901733
aF204.5538021326065
aF208.00160789489746
aF215.38117349147797
aF212.18961083889008
aF214.8438937664032
aF216.91068065166473
aF213.6058702468872
aF222.41631090641022
aF195.4094489812851
aF219.55058217048645
aF206.70642256736755
aF202.65274691581726
aF207.17022943496704
aF222.67334008216858
aF197.84819495677948
aF203.02740228176117
aF214.59639883041382
aF203.1379520893097
aF210.5293298959732
aF202.2517523765564
aF212.46875083446503
aF214.29407727718353
aF201.58736371994019
aF232.01104843616486
aF204.7724711894989
aF213.6675500869751
aF206.78154528141022
aF201.28178572654724
aF204.6475841999054
aF199.5222762823105
aF200.24108958244324
aF219.53334939479828
aF205.34463441371918
aF200.48957800865173
aF211.5313675403595
aF228.7134337425232
aF200.12344753742218
aF209.52809238433838
aF201.73857712745667
aF218.00071561336517
aF200.68758583068848
aF196.80895328521729
aF198.54184687137604
aF212.28375482559204
aF209.08634507656097
aF207.90809416770935
aF202.4074158668518
aF206.54257762432098
aF215.50313103199005
aF204.66464376449585
aF212.05125892162323
aF195.43264520168304
aF209.6967990398407
aF208.82292413711548
aF197.66141724586487
aF201.99794495105743
aF200.0166952610016
aF205.99663066864014
aF207.59557580947876
aF211.74704563617706
aF193.90044260025024
aF200.60559105873108
aF222.42541933059692
aF204.4088271856308
aF204.32541978359222
aF215.07870364189148
aF196.5070208311081
aF209.490584731102
aF197.83444452285767
aF212.09082973003387
aF212.67590963840485
aF206.28861796855927
aF208.3968768119812
aF223.6494116783142
aF206.65377008914948
aF202.26931846141815
aF192.84234976768494
aF201.62035131454468
aF201.9138343334198
aF197.29634857177734
aF195.79713487625122
aF209.29353404045105
aF201.42803156375885
aF222.55851018428802
aF215.5223195552826
aF195.20331501960754
aF208.2195405960083
aF201.9264758825302
aF203.08907055854797
aF192.97342252731323
aF198.48154997825623
aF191.73148500919342
aF202.85058116912842
aF196.64109122753143
aF200.5729079246521
aF214.83275628089905
aF213.94685554504395
aF214.12596142292023
aF209.59904074668884
aF202.16165053844452
aF232.66348278522491
aF204.22619891166687
aF216.02336931228638
aF196.91003918647766
aF208.93109714984894
aF193.32188713550568
aF185.18262267112732
aF191.7924885749817
aF188.08893871307373
aF196.12270176410675
aF198.93024241924286
aF195.71826565265656
aF196.7713783979416
aF208.16292428970337
aF203.43687915802002
aF188.84833073616028
aF202.83109748363495
aF195.51022112369537
aF212.24359261989594
aF208.73864030838013
aF194.959126830101
aF213.4049153327942
aF201.86531221866608
aF196.3664813041687
aF205.62565994262695
aF198.52606797218323
aF194.1661024093628
aF208.82712757587433
aF201.9626625776291
aF212.04733860492706
aF199.80334496498108
aF198.0373717546463
aF207.05620300769806
aF203.06010580062866
aF199.48214852809906
aF207.52818965911865
aF200.86937820911407
aF203.2404659986496
aF196.7612726688385
aF203.30577957630157
aF189.20813882350922
aF183.30650639533997
aF212.64081013202667
aF195.74402558803558
aF194.73002099990845
aF196.31605470180511
aF194.02744615077972
aF206.57386004924774
aF199.25335109233856
aF209.0486570596695
aF194.32201147079468
aF213.29371225833893
aF217.92459046840668
aF202.43906116485596
aF190.836110830307
aF210.08010375499725
aF201.3936883211136
aF193.39692962169647
aF194.8419885635376
aF186.66017389297485
aF198.45094406604767
aF201.6941614151001
aF189.98448812961578
aF200.416605591774
aF201.29810106754303
aF209.78108632564545
aF205.96472334861755
aF198.03826308250427
aF192.2429791688919
aF207.98767387866974
aF201.27003049850464
aF200.4819579720497
aF198.02406573295593
aF186.98491370677948
aF192.72453474998474
aF212.9339611530304
aF193.17603993415833
aF191.9886429309845
aF194.9762794971466
aF204.8190597295761
aF195.4323444366455
aF191.80233657360077
aasS'epoch'
p10
I3895
s.