(dp0
S'total_time'
p1
cdatetime
datetime
p2
(S'\x00\x01\x01\x01\x005\x01\x05\xa4\xa7'
p3
tp4
Rp5
sS'loss_list'
p6
(lp7
(lp8
I0
aI1
aI2
aI3
aI4
aI5
aI6
aI7
aI8
aI9
aI10
aI11
aI12
aI13
aI14
aI15
aI16
aI17
aI18
aI19
aI20
aI21
aI22
aI23
aI24
aI25
aI26
aI27
aI28
aI29
aI30
aI31
aI32
aI33
aI34
aI35
aI36
aI37
aI38
aI39
aI40
aI41
aI42
aI43
aI44
aI45
aI46
aI47
aI48
aI49
aa(lp9
F89085.66430664062
aF62476.25018310547
aF57431.17663574219
aF55031.355224609375
aF54561.654541015625
aF54211.18225097656
aF53395.718505859375
aF53009.56121826172
aF52790.970275878906
aF52632.09552001953
aF52504.62292480469
aF52385.16680908203
aF52291.514587402344
aF52196.353942871094
aF52128.955322265625
aF52026.830078125
aF51957.725494384766
aF51900.29052734375
aF51833.065185546875
aF51765.760803222656
aF51715.09411621094
aF51664.82940673828
aF51620.292053222656
aF51571.156677246094
aF51519.81903076172
aF51468.319763183594
aF51428.580139160156
aF51407.137634277344
aF51622.459228515625
aF51315.92980957031
aF51213.01608276367
aF51178.310302734375
aF51480.31607055664
aF51072.45965576172
aF51025.141052246094
aF50973.02801513672
aF50926.34439086914
aF50876.971435546875
aF50826.55145263672
aF51079.34686279297
aF51093.144592285156
aF51284.71823120117
aF51006.120208740234
aF50540.334533691406
aF50409.868408203125
aF50334.346252441406
aF50249.53353881836
aF50270.189697265625
aF50292.659118652344
aF50010.87432861328
aasS'epoch'
p10
I49
s.