(dp0
S'total_time'
p1
cdatetime
datetime
p2
(S'\x00\x01\x01\x01\x00/\x07\r\x04\xda'
p3
tp4
Rp5
sS'loss_list'
p6
(lp7
(lp8
I0
aI1
aI2
aI3
aI4
aI5
aI6
aI7
aI8
aI9
aI10
aI11
aI12
aI13
aI14
aI15
aI16
aI17
aI18
aI19
aI20
aI21
aI22
aI23
aI24
aI25
aI26
aI27
aI28
aI29
aI30
aI31
aI32
aI33
aI34
aI35
aI36
aI37
aI38
aI39
aI40
aI41
aI42
aI43
aI44
aI45
aI46
aI47
aI48
aI49
aa(lp9
F121157.07275390625
aF118294.27673339844
aF117495.94604492188
aF116930.52978515625
aF116729.38269042969
aF116770.72937011719
aF116492.42553710938
aF116345.82043457031
aF116371.78955078125
aF116116.60485839844
aF115975.1572265625
aF115918.81994628906
aF115740.56665039062
aF115592.75109863281
aF115488.04089355469
aF115359.07641601562
aF115316.20581054688
aF115204.73583984375
aF115077.79931640625
aF114993.55395507812
aF114887.27575683594
aF114814.52001953125
aF114726.79223632812
aF114617.16662597656
aF114522.81616210938
aF114496.55529785156
aF114424.005859375
aF114290.78442382812
aF114223.31945800781
aF114172.48266601562
aF114121.45617675781
aF114041.50048828125
aF113984.96813964844
aF113969.61218261719
aF113892.20300292969
aF113831.30822753906
aF113539.33911132812
aF113464.19641113281
aF113415.82055664062
aF113377.30847167969
aF113320.77612304688
aF113271.32214355469
aF113252.67004394531
aF113215.62353515625
aF113202.50219726562
aF113182.68420410156
aF113127.75537109375
aF113083.13269042969
aF113047.76672363281
aF113010.97692871094
aasS'epoch'
p10
I49
s.