(dp0
S'total_time'
p1
cdatetime
datetime
p2
(S'\x00\x01\x01\x01\x00\x12\x0c\x04\x1c\xb7'
p3
tp4
Rp5
sS'loss_list'
p6
(lp7
(lp8
I0
aI1
aI2
aI3
aI4
aI5
aI6
aI7
aI8
aI9
aI10
aI11
aI12
aI13
aI14
aI15
aI16
aI17
aI18
aI19
aI20
aI21
aI22
aI23
aI24
aI25
aI26
aI27
aI28
aI29
aI30
aI31
aI32
aI33
aI34
aI35
aI36
aI37
aI38
aI39
aI40
aI41
aI42
aI43
aI44
aI45
aI46
aI47
aI48
aI49
aI50
aI51
aI52
aI53
aI54
aI55
aI56
aI57
aI58
aI59
aa(lp9
F17489.349227905273
aF17487.88706970215
aF17485.71272277832
aF17485.566452026367
aF17485.478240966797
aF17485.412475585938
aF17485.360809326172
aF17485.319732666016
aF17485.286087036133
aF17485.258224487305
aF17485.232940673828
aF17485.21046447754
aF17485.19139099121
aF17485.174591064453
aF17485.158432006836
aF17485.143798828125
aF17485.130310058594
aF17485.11834716797
aF17485.106704711914
aF17485.095703125
aF17485.085540771484
aF17485.07601928711
aF17485.06690979004
aF17485.058639526367
aF17485.050827026367
aF17485.042907714844
aF17485.035583496094
aF17485.028411865234
aF17485.022247314453
aF17485.016143798828
aF17485.009490966797
aF17485.004104614258
aF17484.997680664062
aF17484.992111206055
aF17484.987213134766
aF17484.98211669922
aF17484.97738647461
aF17484.971725463867
aF17484.96745300293
aF17484.96354675293
aF17484.957946777344
aF17484.95491027832
aF17484.950729370117
aF17484.945755004883
aF17484.942977905273
aF17484.938400268555
aF17484.934616088867
aF17484.931915283203
aF17484.927047729492
aF17484.92399597168
aF17484.920013427734
aF17484.916534423828
aF17484.91293334961
aF17484.909545898438
aF17484.905990600586
aF17484.90219116211
aF17484.898544311523
aF17484.894958496094
aF17484.891723632812
aF17484.887176513672
aasS'epoch'
p10
I60
s.