(dp0
S'total_time'
p1
cdatetime
datetime
p2
(S'\x00\x01\x01\x01\x00\x05\x11\x05\x93\xbe'
p3
tp4
Rp5
sS'loss_list'
p6
(lp7
(lp8
I0
aI1
aI2
aI3
aI4
aI5
aI6
aI7
aI8
aI9
aI10
aI11
aI12
aI13
aI14
aI15
aI16
aI17
aI18
aI19
aI20
aI21
aI22
aI23
aI24
aI25
aI26
aI27
aI28
aI29
aI30
aI31
aI32
aI33
aI34
aI35
aI36
aI37
aI38
aI39
aI40
aI41
aI42
aI43
aI44
aI45
aI46
aI47
aI48
aI49
aa(lp9
F17240.882049560547
aF16936.044021606445
aF16722.352447509766
aF16486.97134399414
aF16403.61279296875
aF16331.234329223633
aF16309.7841796875
aF16257.61799621582
aF16156.992095947266
aF16132.155685424805
aF16155.274703979492
aF16153.5771484375
aF16044.568435668945
aF15797.735610961914
aF15612.931381225586
aF15508.27719116211
aF15432.613800048828
aF15423.747283935547
aF15357.243087768555
aF15343.118286132812
aF15368.391326904297
aF15299.109680175781
aF15274.117462158203
aF15256.488067626953
aF15257.71078491211
aF15271.255172729492
aF15266.540390014648
aF15233.38606262207
aF15225.205749511719
aF15213.753677368164
aF15198.206680297852
aF15205.351791381836
aF15188.612976074219
aF15209.056213378906
aF15194.548065185547
aF15173.731674194336
aF15181.249694824219
aF15174.47981262207
aF15186.414306640625
aF15207.013198852539
aF15155.700119018555
aF15170.760467529297
aF15154.088302612305
aF15153.557388305664
aF15175.348251342773
aF15175.246032714844
aF15142.754501342773
aF15150.071166992188
aF15137.626403808594
aF15141.311157226562
aasS'epoch'
p10
I49
s.